ARM GAS  /tmp/ccNSc7lp.s 			page 1


   1              		.cpu cortex-m3
   2              		.arch armv7-m
   3              		.fpu softvfp
   4              		.eabi_attribute 20, 1
   5              		.eabi_attribute 21, 1
   6              		.eabi_attribute 23, 3
   7              		.eabi_attribute 24, 1
   8              		.eabi_attribute 25, 1
   9              		.eabi_attribute 26, 1
  10              		.eabi_attribute 30, 4
  11              		.eabi_attribute 34, 1
  12              		.eabi_attribute 18, 4
  13              		.file	"event_groups.c"
  14              		.text
  15              	.Ltext0:
  16              		.cfi_sections	.debug_frame
  17              		.file 1 "Middlewares/Third_Party/FreeRTOS/Source/event_groups.c"
  18              		.section	.text.xEventGroupCreateStatic,"ax",%progbits
  19              		.align	1
  20              		.global	xEventGroupCreateStatic
  21              		.syntax unified
  22              		.thumb
  23              		.thumb_func
  25              	xEventGroupCreateStatic:
  26              	.LVL0:
  27              	.LFB4:
   1:Middlewares/Third_Party/FreeRTOS/Source/event_groups.c **** /*
   2:Middlewares/Third_Party/FreeRTOS/Source/event_groups.c ****  * FreeRTOS Kernel V10.0.1
   3:Middlewares/Third_Party/FreeRTOS/Source/event_groups.c ****  * Copyright (C) 2017 Amazon.com, Inc. or its affiliates.  All Rights Reserved.
   4:Middlewares/Third_Party/FreeRTOS/Source/event_groups.c ****  *
   5:Middlewares/Third_Party/FreeRTOS/Source/event_groups.c ****  * Permission is hereby granted, free of charge, to any person obtaining a copy of
   6:Middlewares/Third_Party/FreeRTOS/Source/event_groups.c ****  * this software and associated documentation files (the "Software"), to deal in
   7:Middlewares/Third_Party/FreeRTOS/Source/event_groups.c ****  * the Software without restriction, including without limitation the rights to
   8:Middlewares/Third_Party/FreeRTOS/Source/event_groups.c ****  * use, copy, modify, merge, publish, distribute, sublicense, and/or sell copies of
   9:Middlewares/Third_Party/FreeRTOS/Source/event_groups.c ****  * the Software, and to permit persons to whom the Software is furnished to do so,
  10:Middlewares/Third_Party/FreeRTOS/Source/event_groups.c ****  * subject to the following conditions:
  11:Middlewares/Third_Party/FreeRTOS/Source/event_groups.c ****  *
  12:Middlewares/Third_Party/FreeRTOS/Source/event_groups.c ****  * The above copyright notice and this permission notice shall be included in all
  13:Middlewares/Third_Party/FreeRTOS/Source/event_groups.c ****  * copies or substantial portions of the Software.
  14:Middlewares/Third_Party/FreeRTOS/Source/event_groups.c ****  *
  15:Middlewares/Third_Party/FreeRTOS/Source/event_groups.c ****  * THE SOFTWARE IS PROVIDED "AS IS", WITHOUT WARRANTY OF ANY KIND, EXPRESS OR
  16:Middlewares/Third_Party/FreeRTOS/Source/event_groups.c ****  * IMPLIED, INCLUDING BUT NOT LIMITED TO THE WARRANTIES OF MERCHANTABILITY, FITNESS
  17:Middlewares/Third_Party/FreeRTOS/Source/event_groups.c ****  * FOR A PARTICULAR PURPOSE AND NONINFRINGEMENT. IN NO EVENT SHALL THE AUTHORS OR
  18:Middlewares/Third_Party/FreeRTOS/Source/event_groups.c ****  * COPYRIGHT HOLDERS BE LIABLE FOR ANY CLAIM, DAMAGES OR OTHER LIABILITY, WHETHER
  19:Middlewares/Third_Party/FreeRTOS/Source/event_groups.c ****  * IN AN ACTION OF CONTRACT, TORT OR OTHERWISE, ARISING FROM, OUT OF OR IN
  20:Middlewares/Third_Party/FreeRTOS/Source/event_groups.c ****  * CONNECTION WITH THE SOFTWARE OR THE USE OR OTHER DEALINGS IN THE SOFTWARE.
  21:Middlewares/Third_Party/FreeRTOS/Source/event_groups.c ****  *
  22:Middlewares/Third_Party/FreeRTOS/Source/event_groups.c ****  * http://www.FreeRTOS.org
  23:Middlewares/Third_Party/FreeRTOS/Source/event_groups.c ****  * http://aws.amazon.com/freertos
  24:Middlewares/Third_Party/FreeRTOS/Source/event_groups.c ****  *
  25:Middlewares/Third_Party/FreeRTOS/Source/event_groups.c ****  * 1 tab == 4 spaces!
  26:Middlewares/Third_Party/FreeRTOS/Source/event_groups.c ****  */
  27:Middlewares/Third_Party/FreeRTOS/Source/event_groups.c **** 
  28:Middlewares/Third_Party/FreeRTOS/Source/event_groups.c **** /* Standard includes. */
  29:Middlewares/Third_Party/FreeRTOS/Source/event_groups.c **** #include <stdlib.h>
  30:Middlewares/Third_Party/FreeRTOS/Source/event_groups.c **** 
  31:Middlewares/Third_Party/FreeRTOS/Source/event_groups.c **** /* Defining MPU_WRAPPERS_INCLUDED_FROM_API_FILE prevents task.h from redefining
ARM GAS  /tmp/ccNSc7lp.s 			page 2


  32:Middlewares/Third_Party/FreeRTOS/Source/event_groups.c **** all the API functions to use the MPU wrappers.  That should only be done when
  33:Middlewares/Third_Party/FreeRTOS/Source/event_groups.c **** task.h is included from an application file. */
  34:Middlewares/Third_Party/FreeRTOS/Source/event_groups.c **** #define MPU_WRAPPERS_INCLUDED_FROM_API_FILE
  35:Middlewares/Third_Party/FreeRTOS/Source/event_groups.c **** 
  36:Middlewares/Third_Party/FreeRTOS/Source/event_groups.c **** /* FreeRTOS includes. */
  37:Middlewares/Third_Party/FreeRTOS/Source/event_groups.c **** #include "FreeRTOS.h"
  38:Middlewares/Third_Party/FreeRTOS/Source/event_groups.c **** #include "task.h"
  39:Middlewares/Third_Party/FreeRTOS/Source/event_groups.c **** #include "timers.h"
  40:Middlewares/Third_Party/FreeRTOS/Source/event_groups.c **** #include "event_groups.h"
  41:Middlewares/Third_Party/FreeRTOS/Source/event_groups.c **** 
  42:Middlewares/Third_Party/FreeRTOS/Source/event_groups.c **** /* Lint e961 and e750 are suppressed as a MISRA exception justified because the
  43:Middlewares/Third_Party/FreeRTOS/Source/event_groups.c **** MPU ports require MPU_WRAPPERS_INCLUDED_FROM_API_FILE to be defined for the
  44:Middlewares/Third_Party/FreeRTOS/Source/event_groups.c **** header files above, but not in this file, in order to generate the correct
  45:Middlewares/Third_Party/FreeRTOS/Source/event_groups.c **** privileged Vs unprivileged linkage and placement. */
  46:Middlewares/Third_Party/FreeRTOS/Source/event_groups.c **** #undef MPU_WRAPPERS_INCLUDED_FROM_API_FILE /*lint !e961 !e750. */
  47:Middlewares/Third_Party/FreeRTOS/Source/event_groups.c **** 
  48:Middlewares/Third_Party/FreeRTOS/Source/event_groups.c **** /* The following bit fields convey control information in a task's event list
  49:Middlewares/Third_Party/FreeRTOS/Source/event_groups.c **** item value.  It is important they don't clash with the
  50:Middlewares/Third_Party/FreeRTOS/Source/event_groups.c **** taskEVENT_LIST_ITEM_VALUE_IN_USE definition. */
  51:Middlewares/Third_Party/FreeRTOS/Source/event_groups.c **** #if configUSE_16_BIT_TICKS == 1
  52:Middlewares/Third_Party/FreeRTOS/Source/event_groups.c **** 	#define eventCLEAR_EVENTS_ON_EXIT_BIT	0x0100U
  53:Middlewares/Third_Party/FreeRTOS/Source/event_groups.c **** 	#define eventUNBLOCKED_DUE_TO_BIT_SET	0x0200U
  54:Middlewares/Third_Party/FreeRTOS/Source/event_groups.c **** 	#define eventWAIT_FOR_ALL_BITS			0x0400U
  55:Middlewares/Third_Party/FreeRTOS/Source/event_groups.c **** 	#define eventEVENT_BITS_CONTROL_BYTES	0xff00U
  56:Middlewares/Third_Party/FreeRTOS/Source/event_groups.c **** #else
  57:Middlewares/Third_Party/FreeRTOS/Source/event_groups.c **** 	#define eventCLEAR_EVENTS_ON_EXIT_BIT	0x01000000UL
  58:Middlewares/Third_Party/FreeRTOS/Source/event_groups.c **** 	#define eventUNBLOCKED_DUE_TO_BIT_SET	0x02000000UL
  59:Middlewares/Third_Party/FreeRTOS/Source/event_groups.c **** 	#define eventWAIT_FOR_ALL_BITS			0x04000000UL
  60:Middlewares/Third_Party/FreeRTOS/Source/event_groups.c **** 	#define eventEVENT_BITS_CONTROL_BYTES	0xff000000UL
  61:Middlewares/Third_Party/FreeRTOS/Source/event_groups.c **** #endif
  62:Middlewares/Third_Party/FreeRTOS/Source/event_groups.c **** 
  63:Middlewares/Third_Party/FreeRTOS/Source/event_groups.c **** typedef struct xEventGroupDefinition
  64:Middlewares/Third_Party/FreeRTOS/Source/event_groups.c **** {
  65:Middlewares/Third_Party/FreeRTOS/Source/event_groups.c **** 	EventBits_t uxEventBits;
  66:Middlewares/Third_Party/FreeRTOS/Source/event_groups.c **** 	List_t xTasksWaitingForBits;		/*< List of tasks waiting for a bit to be set. */
  67:Middlewares/Third_Party/FreeRTOS/Source/event_groups.c **** 
  68:Middlewares/Third_Party/FreeRTOS/Source/event_groups.c **** 	#if( configUSE_TRACE_FACILITY == 1 )
  69:Middlewares/Third_Party/FreeRTOS/Source/event_groups.c **** 		UBaseType_t uxEventGroupNumber;
  70:Middlewares/Third_Party/FreeRTOS/Source/event_groups.c **** 	#endif
  71:Middlewares/Third_Party/FreeRTOS/Source/event_groups.c **** 
  72:Middlewares/Third_Party/FreeRTOS/Source/event_groups.c **** 	#if( ( configSUPPORT_STATIC_ALLOCATION == 1 ) && ( configSUPPORT_DYNAMIC_ALLOCATION == 1 ) )
  73:Middlewares/Third_Party/FreeRTOS/Source/event_groups.c **** 		uint8_t ucStaticallyAllocated; /*< Set to pdTRUE if the event group is statically allocated to en
  74:Middlewares/Third_Party/FreeRTOS/Source/event_groups.c **** 	#endif
  75:Middlewares/Third_Party/FreeRTOS/Source/event_groups.c **** } EventGroup_t;
  76:Middlewares/Third_Party/FreeRTOS/Source/event_groups.c **** 
  77:Middlewares/Third_Party/FreeRTOS/Source/event_groups.c **** /*-----------------------------------------------------------*/
  78:Middlewares/Third_Party/FreeRTOS/Source/event_groups.c **** 
  79:Middlewares/Third_Party/FreeRTOS/Source/event_groups.c **** /*
  80:Middlewares/Third_Party/FreeRTOS/Source/event_groups.c ****  * Test the bits set in uxCurrentEventBits to see if the wait condition is met.
  81:Middlewares/Third_Party/FreeRTOS/Source/event_groups.c ****  * The wait condition is defined by xWaitForAllBits.  If xWaitForAllBits is
  82:Middlewares/Third_Party/FreeRTOS/Source/event_groups.c ****  * pdTRUE then the wait condition is met if all the bits set in uxBitsToWaitFor
  83:Middlewares/Third_Party/FreeRTOS/Source/event_groups.c ****  * are also set in uxCurrentEventBits.  If xWaitForAllBits is pdFALSE then the
  84:Middlewares/Third_Party/FreeRTOS/Source/event_groups.c ****  * wait condition is met if any of the bits set in uxBitsToWait for are also set
  85:Middlewares/Third_Party/FreeRTOS/Source/event_groups.c ****  * in uxCurrentEventBits.
  86:Middlewares/Third_Party/FreeRTOS/Source/event_groups.c ****  */
  87:Middlewares/Third_Party/FreeRTOS/Source/event_groups.c **** static BaseType_t prvTestWaitCondition( const EventBits_t uxCurrentEventBits, const EventBits_t uxB
  88:Middlewares/Third_Party/FreeRTOS/Source/event_groups.c **** 
ARM GAS  /tmp/ccNSc7lp.s 			page 3


  89:Middlewares/Third_Party/FreeRTOS/Source/event_groups.c **** /*-----------------------------------------------------------*/
  90:Middlewares/Third_Party/FreeRTOS/Source/event_groups.c **** 
  91:Middlewares/Third_Party/FreeRTOS/Source/event_groups.c **** #if( configSUPPORT_STATIC_ALLOCATION == 1 )
  92:Middlewares/Third_Party/FreeRTOS/Source/event_groups.c **** 
  93:Middlewares/Third_Party/FreeRTOS/Source/event_groups.c **** 	EventGroupHandle_t xEventGroupCreateStatic( StaticEventGroup_t *pxEventGroupBuffer )
  94:Middlewares/Third_Party/FreeRTOS/Source/event_groups.c **** 	{
  28              		.loc 1 94 2 view -0
  29              		.cfi_startproc
  30              		@ args = 0, pretend = 0, frame = 8
  31              		@ frame_needed = 0, uses_anonymous_args = 0
  95:Middlewares/Third_Party/FreeRTOS/Source/event_groups.c **** 	EventGroup_t *pxEventBits;
  32              		.loc 1 95 2 view .LVU1
  96:Middlewares/Third_Party/FreeRTOS/Source/event_groups.c **** 
  97:Middlewares/Third_Party/FreeRTOS/Source/event_groups.c **** 		/* A StaticEventGroup_t object must be provided. */
  98:Middlewares/Third_Party/FreeRTOS/Source/event_groups.c **** 		configASSERT( pxEventGroupBuffer );
  33              		.loc 1 98 3 view .LVU2
  94:Middlewares/Third_Party/FreeRTOS/Source/event_groups.c **** 	EventGroup_t *pxEventBits;
  34              		.loc 1 94 2 is_stmt 0 view .LVU3
  35 0000 13B5     		push	{r0, r1, r4, lr}
  36              		.cfi_def_cfa_offset 16
  37              		.cfi_offset 4, -8
  38              		.cfi_offset 14, -4
  39              		.loc 1 98 3 view .LVU4
  40 0002 0446     		mov	r4, r0
  41 0004 40B9     		cbnz	r0, .L2
  42              		.loc 1 98 3 is_stmt 1 view .LVU5
  43              	.LBB44:
  44              	.LBI44:
  45              		.file 2 "Middlewares/Third_Party/FreeRTOS/Source/portable/GCC/ARM_CM3/portmacro.h"
   1:Middlewares/Third_Party/FreeRTOS/Source/portable/GCC/ARM_CM3/portmacro.h **** /*
   2:Middlewares/Third_Party/FreeRTOS/Source/portable/GCC/ARM_CM3/portmacro.h ****  * FreeRTOS Kernel V10.0.1
   3:Middlewares/Third_Party/FreeRTOS/Source/portable/GCC/ARM_CM3/portmacro.h ****  * Copyright (C) 2017 Amazon.com, Inc. or its affiliates.  All Rights Reserved.
   4:Middlewares/Third_Party/FreeRTOS/Source/portable/GCC/ARM_CM3/portmacro.h ****  *
   5:Middlewares/Third_Party/FreeRTOS/Source/portable/GCC/ARM_CM3/portmacro.h ****  * Permission is hereby granted, free of charge, to any person obtaining a copy of
   6:Middlewares/Third_Party/FreeRTOS/Source/portable/GCC/ARM_CM3/portmacro.h ****  * this software and associated documentation files (the "Software"), to deal in
   7:Middlewares/Third_Party/FreeRTOS/Source/portable/GCC/ARM_CM3/portmacro.h ****  * the Software without restriction, including without limitation the rights to
   8:Middlewares/Third_Party/FreeRTOS/Source/portable/GCC/ARM_CM3/portmacro.h ****  * use, copy, modify, merge, publish, distribute, sublicense, and/or sell copies of
   9:Middlewares/Third_Party/FreeRTOS/Source/portable/GCC/ARM_CM3/portmacro.h ****  * the Software, and to permit persons to whom the Software is furnished to do so,
  10:Middlewares/Third_Party/FreeRTOS/Source/portable/GCC/ARM_CM3/portmacro.h ****  * subject to the following conditions:
  11:Middlewares/Third_Party/FreeRTOS/Source/portable/GCC/ARM_CM3/portmacro.h ****  *
  12:Middlewares/Third_Party/FreeRTOS/Source/portable/GCC/ARM_CM3/portmacro.h ****  * The above copyright notice and this permission notice shall be included in all
  13:Middlewares/Third_Party/FreeRTOS/Source/portable/GCC/ARM_CM3/portmacro.h ****  * copies or substantial portions of the Software.
  14:Middlewares/Third_Party/FreeRTOS/Source/portable/GCC/ARM_CM3/portmacro.h ****  *
  15:Middlewares/Third_Party/FreeRTOS/Source/portable/GCC/ARM_CM3/portmacro.h ****  * THE SOFTWARE IS PROVIDED "AS IS", WITHOUT WARRANTY OF ANY KIND, EXPRESS OR
  16:Middlewares/Third_Party/FreeRTOS/Source/portable/GCC/ARM_CM3/portmacro.h ****  * IMPLIED, INCLUDING BUT NOT LIMITED TO THE WARRANTIES OF MERCHANTABILITY, FITNESS
  17:Middlewares/Third_Party/FreeRTOS/Source/portable/GCC/ARM_CM3/portmacro.h ****  * FOR A PARTICULAR PURPOSE AND NONINFRINGEMENT. IN NO EVENT SHALL THE AUTHORS OR
  18:Middlewares/Third_Party/FreeRTOS/Source/portable/GCC/ARM_CM3/portmacro.h ****  * COPYRIGHT HOLDERS BE LIABLE FOR ANY CLAIM, DAMAGES OR OTHER LIABILITY, WHETHER
  19:Middlewares/Third_Party/FreeRTOS/Source/portable/GCC/ARM_CM3/portmacro.h ****  * IN AN ACTION OF CONTRACT, TORT OR OTHERWISE, ARISING FROM, OUT OF OR IN
  20:Middlewares/Third_Party/FreeRTOS/Source/portable/GCC/ARM_CM3/portmacro.h ****  * CONNECTION WITH THE SOFTWARE OR THE USE OR OTHER DEALINGS IN THE SOFTWARE.
  21:Middlewares/Third_Party/FreeRTOS/Source/portable/GCC/ARM_CM3/portmacro.h ****  *
  22:Middlewares/Third_Party/FreeRTOS/Source/portable/GCC/ARM_CM3/portmacro.h ****  * http://www.FreeRTOS.org
  23:Middlewares/Third_Party/FreeRTOS/Source/portable/GCC/ARM_CM3/portmacro.h ****  * http://aws.amazon.com/freertos
  24:Middlewares/Third_Party/FreeRTOS/Source/portable/GCC/ARM_CM3/portmacro.h ****  *
  25:Middlewares/Third_Party/FreeRTOS/Source/portable/GCC/ARM_CM3/portmacro.h ****  * 1 tab == 4 spaces!
  26:Middlewares/Third_Party/FreeRTOS/Source/portable/GCC/ARM_CM3/portmacro.h ****  */
  27:Middlewares/Third_Party/FreeRTOS/Source/portable/GCC/ARM_CM3/portmacro.h **** 
  28:Middlewares/Third_Party/FreeRTOS/Source/portable/GCC/ARM_CM3/portmacro.h **** 
ARM GAS  /tmp/ccNSc7lp.s 			page 4


  29:Middlewares/Third_Party/FreeRTOS/Source/portable/GCC/ARM_CM3/portmacro.h **** #ifndef PORTMACRO_H
  30:Middlewares/Third_Party/FreeRTOS/Source/portable/GCC/ARM_CM3/portmacro.h **** #define PORTMACRO_H
  31:Middlewares/Third_Party/FreeRTOS/Source/portable/GCC/ARM_CM3/portmacro.h **** 
  32:Middlewares/Third_Party/FreeRTOS/Source/portable/GCC/ARM_CM3/portmacro.h **** #ifdef __cplusplus
  33:Middlewares/Third_Party/FreeRTOS/Source/portable/GCC/ARM_CM3/portmacro.h **** extern "C" {
  34:Middlewares/Third_Party/FreeRTOS/Source/portable/GCC/ARM_CM3/portmacro.h **** #endif
  35:Middlewares/Third_Party/FreeRTOS/Source/portable/GCC/ARM_CM3/portmacro.h **** 
  36:Middlewares/Third_Party/FreeRTOS/Source/portable/GCC/ARM_CM3/portmacro.h **** /*-----------------------------------------------------------
  37:Middlewares/Third_Party/FreeRTOS/Source/portable/GCC/ARM_CM3/portmacro.h ****  * Port specific definitions.
  38:Middlewares/Third_Party/FreeRTOS/Source/portable/GCC/ARM_CM3/portmacro.h ****  *
  39:Middlewares/Third_Party/FreeRTOS/Source/portable/GCC/ARM_CM3/portmacro.h ****  * The settings in this file configure FreeRTOS correctly for the
  40:Middlewares/Third_Party/FreeRTOS/Source/portable/GCC/ARM_CM3/portmacro.h ****  * given hardware and compiler.
  41:Middlewares/Third_Party/FreeRTOS/Source/portable/GCC/ARM_CM3/portmacro.h ****  *
  42:Middlewares/Third_Party/FreeRTOS/Source/portable/GCC/ARM_CM3/portmacro.h ****  * These settings should not be altered.
  43:Middlewares/Third_Party/FreeRTOS/Source/portable/GCC/ARM_CM3/portmacro.h ****  *-----------------------------------------------------------
  44:Middlewares/Third_Party/FreeRTOS/Source/portable/GCC/ARM_CM3/portmacro.h ****  */
  45:Middlewares/Third_Party/FreeRTOS/Source/portable/GCC/ARM_CM3/portmacro.h **** 
  46:Middlewares/Third_Party/FreeRTOS/Source/portable/GCC/ARM_CM3/portmacro.h **** /* Type definitions. */
  47:Middlewares/Third_Party/FreeRTOS/Source/portable/GCC/ARM_CM3/portmacro.h **** #define portCHAR		char
  48:Middlewares/Third_Party/FreeRTOS/Source/portable/GCC/ARM_CM3/portmacro.h **** #define portFLOAT		float
  49:Middlewares/Third_Party/FreeRTOS/Source/portable/GCC/ARM_CM3/portmacro.h **** #define portDOUBLE		double
  50:Middlewares/Third_Party/FreeRTOS/Source/portable/GCC/ARM_CM3/portmacro.h **** #define portLONG		long
  51:Middlewares/Third_Party/FreeRTOS/Source/portable/GCC/ARM_CM3/portmacro.h **** #define portSHORT		short
  52:Middlewares/Third_Party/FreeRTOS/Source/portable/GCC/ARM_CM3/portmacro.h **** #define portSTACK_TYPE	uint32_t
  53:Middlewares/Third_Party/FreeRTOS/Source/portable/GCC/ARM_CM3/portmacro.h **** #define portBASE_TYPE	long
  54:Middlewares/Third_Party/FreeRTOS/Source/portable/GCC/ARM_CM3/portmacro.h **** 
  55:Middlewares/Third_Party/FreeRTOS/Source/portable/GCC/ARM_CM3/portmacro.h **** typedef portSTACK_TYPE StackType_t;
  56:Middlewares/Third_Party/FreeRTOS/Source/portable/GCC/ARM_CM3/portmacro.h **** typedef long BaseType_t;
  57:Middlewares/Third_Party/FreeRTOS/Source/portable/GCC/ARM_CM3/portmacro.h **** typedef unsigned long UBaseType_t;
  58:Middlewares/Third_Party/FreeRTOS/Source/portable/GCC/ARM_CM3/portmacro.h **** 
  59:Middlewares/Third_Party/FreeRTOS/Source/portable/GCC/ARM_CM3/portmacro.h **** #if( configUSE_16_BIT_TICKS == 1 )
  60:Middlewares/Third_Party/FreeRTOS/Source/portable/GCC/ARM_CM3/portmacro.h **** 	typedef uint16_t TickType_t;
  61:Middlewares/Third_Party/FreeRTOS/Source/portable/GCC/ARM_CM3/portmacro.h **** 	#define portMAX_DELAY ( TickType_t ) 0xffff
  62:Middlewares/Third_Party/FreeRTOS/Source/portable/GCC/ARM_CM3/portmacro.h **** #else
  63:Middlewares/Third_Party/FreeRTOS/Source/portable/GCC/ARM_CM3/portmacro.h **** 	typedef uint32_t TickType_t;
  64:Middlewares/Third_Party/FreeRTOS/Source/portable/GCC/ARM_CM3/portmacro.h **** 	#define portMAX_DELAY ( TickType_t ) 0xffffffffUL
  65:Middlewares/Third_Party/FreeRTOS/Source/portable/GCC/ARM_CM3/portmacro.h **** 
  66:Middlewares/Third_Party/FreeRTOS/Source/portable/GCC/ARM_CM3/portmacro.h **** 	/* 32-bit tick type on a 32-bit architecture, so reads of the tick count do
  67:Middlewares/Third_Party/FreeRTOS/Source/portable/GCC/ARM_CM3/portmacro.h **** 	not need to be guarded with a critical section. */
  68:Middlewares/Third_Party/FreeRTOS/Source/portable/GCC/ARM_CM3/portmacro.h **** 	#define portTICK_TYPE_IS_ATOMIC 1
  69:Middlewares/Third_Party/FreeRTOS/Source/portable/GCC/ARM_CM3/portmacro.h **** #endif
  70:Middlewares/Third_Party/FreeRTOS/Source/portable/GCC/ARM_CM3/portmacro.h **** /*-----------------------------------------------------------*/
  71:Middlewares/Third_Party/FreeRTOS/Source/portable/GCC/ARM_CM3/portmacro.h **** 
  72:Middlewares/Third_Party/FreeRTOS/Source/portable/GCC/ARM_CM3/portmacro.h **** /* Architecture specifics. */
  73:Middlewares/Third_Party/FreeRTOS/Source/portable/GCC/ARM_CM3/portmacro.h **** #define portSTACK_GROWTH			( -1 )
  74:Middlewares/Third_Party/FreeRTOS/Source/portable/GCC/ARM_CM3/portmacro.h **** #define portTICK_PERIOD_MS			( ( TickType_t ) 1000 / configTICK_RATE_HZ )
  75:Middlewares/Third_Party/FreeRTOS/Source/portable/GCC/ARM_CM3/portmacro.h **** #define portBYTE_ALIGNMENT			8
  76:Middlewares/Third_Party/FreeRTOS/Source/portable/GCC/ARM_CM3/portmacro.h **** /*-----------------------------------------------------------*/
  77:Middlewares/Third_Party/FreeRTOS/Source/portable/GCC/ARM_CM3/portmacro.h **** 
  78:Middlewares/Third_Party/FreeRTOS/Source/portable/GCC/ARM_CM3/portmacro.h **** /* Scheduler utilities. */
  79:Middlewares/Third_Party/FreeRTOS/Source/portable/GCC/ARM_CM3/portmacro.h **** #define portYIELD() 															\
  80:Middlewares/Third_Party/FreeRTOS/Source/portable/GCC/ARM_CM3/portmacro.h **** {																				\
  81:Middlewares/Third_Party/FreeRTOS/Source/portable/GCC/ARM_CM3/portmacro.h **** 	/* Set a PendSV to request a context switch. */								\
  82:Middlewares/Third_Party/FreeRTOS/Source/portable/GCC/ARM_CM3/portmacro.h **** 	portNVIC_INT_CTRL_REG = portNVIC_PENDSVSET_BIT;								\
  83:Middlewares/Third_Party/FreeRTOS/Source/portable/GCC/ARM_CM3/portmacro.h **** 																				\
  84:Middlewares/Third_Party/FreeRTOS/Source/portable/GCC/ARM_CM3/portmacro.h **** 	/* Barriers are normally not required but do ensure the code is completely	\
  85:Middlewares/Third_Party/FreeRTOS/Source/portable/GCC/ARM_CM3/portmacro.h **** 	within the specified behaviour for the architecture. */						\
ARM GAS  /tmp/ccNSc7lp.s 			page 5


  86:Middlewares/Third_Party/FreeRTOS/Source/portable/GCC/ARM_CM3/portmacro.h **** 	__asm volatile( "dsb" ::: "memory" );										\
  87:Middlewares/Third_Party/FreeRTOS/Source/portable/GCC/ARM_CM3/portmacro.h **** 	__asm volatile( "isb" );													\
  88:Middlewares/Third_Party/FreeRTOS/Source/portable/GCC/ARM_CM3/portmacro.h **** }
  89:Middlewares/Third_Party/FreeRTOS/Source/portable/GCC/ARM_CM3/portmacro.h **** 
  90:Middlewares/Third_Party/FreeRTOS/Source/portable/GCC/ARM_CM3/portmacro.h **** #define portNVIC_INT_CTRL_REG		( * ( ( volatile uint32_t * ) 0xe000ed04 ) )
  91:Middlewares/Third_Party/FreeRTOS/Source/portable/GCC/ARM_CM3/portmacro.h **** #define portNVIC_PENDSVSET_BIT		( 1UL << 28UL )
  92:Middlewares/Third_Party/FreeRTOS/Source/portable/GCC/ARM_CM3/portmacro.h **** #define portEND_SWITCHING_ISR( xSwitchRequired ) if( xSwitchRequired != pdFALSE ) portYIELD()
  93:Middlewares/Third_Party/FreeRTOS/Source/portable/GCC/ARM_CM3/portmacro.h **** #define portYIELD_FROM_ISR( x ) portEND_SWITCHING_ISR( x )
  94:Middlewares/Third_Party/FreeRTOS/Source/portable/GCC/ARM_CM3/portmacro.h **** /*-----------------------------------------------------------*/
  95:Middlewares/Third_Party/FreeRTOS/Source/portable/GCC/ARM_CM3/portmacro.h **** 
  96:Middlewares/Third_Party/FreeRTOS/Source/portable/GCC/ARM_CM3/portmacro.h **** /* Critical section management. */
  97:Middlewares/Third_Party/FreeRTOS/Source/portable/GCC/ARM_CM3/portmacro.h **** extern void vPortEnterCritical( void );
  98:Middlewares/Third_Party/FreeRTOS/Source/portable/GCC/ARM_CM3/portmacro.h **** extern void vPortExitCritical( void );
  99:Middlewares/Third_Party/FreeRTOS/Source/portable/GCC/ARM_CM3/portmacro.h **** #define portSET_INTERRUPT_MASK_FROM_ISR()		ulPortRaiseBASEPRI()
 100:Middlewares/Third_Party/FreeRTOS/Source/portable/GCC/ARM_CM3/portmacro.h **** #define portCLEAR_INTERRUPT_MASK_FROM_ISR(x)	vPortSetBASEPRI(x)
 101:Middlewares/Third_Party/FreeRTOS/Source/portable/GCC/ARM_CM3/portmacro.h **** #define portDISABLE_INTERRUPTS()				vPortRaiseBASEPRI()
 102:Middlewares/Third_Party/FreeRTOS/Source/portable/GCC/ARM_CM3/portmacro.h **** #define portENABLE_INTERRUPTS()					vPortSetBASEPRI(0)
 103:Middlewares/Third_Party/FreeRTOS/Source/portable/GCC/ARM_CM3/portmacro.h **** #define portENTER_CRITICAL()					vPortEnterCritical()
 104:Middlewares/Third_Party/FreeRTOS/Source/portable/GCC/ARM_CM3/portmacro.h **** #define portEXIT_CRITICAL()						vPortExitCritical()
 105:Middlewares/Third_Party/FreeRTOS/Source/portable/GCC/ARM_CM3/portmacro.h **** 
 106:Middlewares/Third_Party/FreeRTOS/Source/portable/GCC/ARM_CM3/portmacro.h **** /*-----------------------------------------------------------*/
 107:Middlewares/Third_Party/FreeRTOS/Source/portable/GCC/ARM_CM3/portmacro.h **** 
 108:Middlewares/Third_Party/FreeRTOS/Source/portable/GCC/ARM_CM3/portmacro.h **** /* Task function macros as described on the FreeRTOS.org WEB site.  These are
 109:Middlewares/Third_Party/FreeRTOS/Source/portable/GCC/ARM_CM3/portmacro.h **** not necessary for to use this port.  They are defined so the common demo files
 110:Middlewares/Third_Party/FreeRTOS/Source/portable/GCC/ARM_CM3/portmacro.h **** (which build with all the ports) will build. */
 111:Middlewares/Third_Party/FreeRTOS/Source/portable/GCC/ARM_CM3/portmacro.h **** #define portTASK_FUNCTION_PROTO( vFunction, pvParameters ) void vFunction( void *pvParameters )
 112:Middlewares/Third_Party/FreeRTOS/Source/portable/GCC/ARM_CM3/portmacro.h **** #define portTASK_FUNCTION( vFunction, pvParameters ) void vFunction( void *pvParameters )
 113:Middlewares/Third_Party/FreeRTOS/Source/portable/GCC/ARM_CM3/portmacro.h **** /*-----------------------------------------------------------*/
 114:Middlewares/Third_Party/FreeRTOS/Source/portable/GCC/ARM_CM3/portmacro.h **** 
 115:Middlewares/Third_Party/FreeRTOS/Source/portable/GCC/ARM_CM3/portmacro.h **** /* Tickless idle/low power functionality. */
 116:Middlewares/Third_Party/FreeRTOS/Source/portable/GCC/ARM_CM3/portmacro.h **** #ifndef portSUPPRESS_TICKS_AND_SLEEP
 117:Middlewares/Third_Party/FreeRTOS/Source/portable/GCC/ARM_CM3/portmacro.h **** 	extern void vPortSuppressTicksAndSleep( TickType_t xExpectedIdleTime );
 118:Middlewares/Third_Party/FreeRTOS/Source/portable/GCC/ARM_CM3/portmacro.h **** 	#define portSUPPRESS_TICKS_AND_SLEEP( xExpectedIdleTime ) vPortSuppressTicksAndSleep( xExpectedIdl
 119:Middlewares/Third_Party/FreeRTOS/Source/portable/GCC/ARM_CM3/portmacro.h **** #endif
 120:Middlewares/Third_Party/FreeRTOS/Source/portable/GCC/ARM_CM3/portmacro.h **** /*-----------------------------------------------------------*/
 121:Middlewares/Third_Party/FreeRTOS/Source/portable/GCC/ARM_CM3/portmacro.h **** 
 122:Middlewares/Third_Party/FreeRTOS/Source/portable/GCC/ARM_CM3/portmacro.h **** /* Architecture specific optimisations. */
 123:Middlewares/Third_Party/FreeRTOS/Source/portable/GCC/ARM_CM3/portmacro.h **** #ifndef configUSE_PORT_OPTIMISED_TASK_SELECTION
 124:Middlewares/Third_Party/FreeRTOS/Source/portable/GCC/ARM_CM3/portmacro.h **** 	#define configUSE_PORT_OPTIMISED_TASK_SELECTION 1
 125:Middlewares/Third_Party/FreeRTOS/Source/portable/GCC/ARM_CM3/portmacro.h **** #endif
 126:Middlewares/Third_Party/FreeRTOS/Source/portable/GCC/ARM_CM3/portmacro.h **** 
 127:Middlewares/Third_Party/FreeRTOS/Source/portable/GCC/ARM_CM3/portmacro.h **** #if configUSE_PORT_OPTIMISED_TASK_SELECTION == 1
 128:Middlewares/Third_Party/FreeRTOS/Source/portable/GCC/ARM_CM3/portmacro.h **** 
 129:Middlewares/Third_Party/FreeRTOS/Source/portable/GCC/ARM_CM3/portmacro.h **** 	/* Generic helper function. */
 130:Middlewares/Third_Party/FreeRTOS/Source/portable/GCC/ARM_CM3/portmacro.h **** 	__attribute__( ( always_inline ) ) static inline uint8_t ucPortCountLeadingZeros( uint32_t ulBitma
 131:Middlewares/Third_Party/FreeRTOS/Source/portable/GCC/ARM_CM3/portmacro.h **** 	{
 132:Middlewares/Third_Party/FreeRTOS/Source/portable/GCC/ARM_CM3/portmacro.h **** 	uint8_t ucReturn;
 133:Middlewares/Third_Party/FreeRTOS/Source/portable/GCC/ARM_CM3/portmacro.h **** 
 134:Middlewares/Third_Party/FreeRTOS/Source/portable/GCC/ARM_CM3/portmacro.h **** 		__asm volatile ( "clz %0, %1" : "=r" ( ucReturn ) : "r" ( ulBitmap ) : "memory" );
 135:Middlewares/Third_Party/FreeRTOS/Source/portable/GCC/ARM_CM3/portmacro.h **** 		return ucReturn;
 136:Middlewares/Third_Party/FreeRTOS/Source/portable/GCC/ARM_CM3/portmacro.h **** 	}
 137:Middlewares/Third_Party/FreeRTOS/Source/portable/GCC/ARM_CM3/portmacro.h **** 
 138:Middlewares/Third_Party/FreeRTOS/Source/portable/GCC/ARM_CM3/portmacro.h **** 	/* Check the configuration. */
 139:Middlewares/Third_Party/FreeRTOS/Source/portable/GCC/ARM_CM3/portmacro.h **** 	#if( configMAX_PRIORITIES > 32 )
 140:Middlewares/Third_Party/FreeRTOS/Source/portable/GCC/ARM_CM3/portmacro.h **** 		#error configUSE_PORT_OPTIMISED_TASK_SELECTION can only be set to 1 when configMAX_PRIORITIES is 
 141:Middlewares/Third_Party/FreeRTOS/Source/portable/GCC/ARM_CM3/portmacro.h **** 	#endif
 142:Middlewares/Third_Party/FreeRTOS/Source/portable/GCC/ARM_CM3/portmacro.h **** 
ARM GAS  /tmp/ccNSc7lp.s 			page 6


 143:Middlewares/Third_Party/FreeRTOS/Source/portable/GCC/ARM_CM3/portmacro.h **** 	/* Store/clear the ready priorities in a bit map. */
 144:Middlewares/Third_Party/FreeRTOS/Source/portable/GCC/ARM_CM3/portmacro.h **** 	#define portRECORD_READY_PRIORITY( uxPriority, uxReadyPriorities ) ( uxReadyPriorities ) |= ( 1UL 
 145:Middlewares/Third_Party/FreeRTOS/Source/portable/GCC/ARM_CM3/portmacro.h **** 	#define portRESET_READY_PRIORITY( uxPriority, uxReadyPriorities ) ( uxReadyPriorities ) &= ~( 1UL 
 146:Middlewares/Third_Party/FreeRTOS/Source/portable/GCC/ARM_CM3/portmacro.h **** 
 147:Middlewares/Third_Party/FreeRTOS/Source/portable/GCC/ARM_CM3/portmacro.h **** 	/*-----------------------------------------------------------*/
 148:Middlewares/Third_Party/FreeRTOS/Source/portable/GCC/ARM_CM3/portmacro.h **** 
 149:Middlewares/Third_Party/FreeRTOS/Source/portable/GCC/ARM_CM3/portmacro.h **** 	#define portGET_HIGHEST_PRIORITY( uxTopPriority, uxReadyPriorities ) uxTopPriority = ( 31UL - ( ui
 150:Middlewares/Third_Party/FreeRTOS/Source/portable/GCC/ARM_CM3/portmacro.h **** 
 151:Middlewares/Third_Party/FreeRTOS/Source/portable/GCC/ARM_CM3/portmacro.h **** #endif /* configUSE_PORT_OPTIMISED_TASK_SELECTION */
 152:Middlewares/Third_Party/FreeRTOS/Source/portable/GCC/ARM_CM3/portmacro.h **** 
 153:Middlewares/Third_Party/FreeRTOS/Source/portable/GCC/ARM_CM3/portmacro.h **** /*-----------------------------------------------------------*/
 154:Middlewares/Third_Party/FreeRTOS/Source/portable/GCC/ARM_CM3/portmacro.h **** 
 155:Middlewares/Third_Party/FreeRTOS/Source/portable/GCC/ARM_CM3/portmacro.h **** #ifdef configASSERT
 156:Middlewares/Third_Party/FreeRTOS/Source/portable/GCC/ARM_CM3/portmacro.h **** 	void vPortValidateInterruptPriority( void );
 157:Middlewares/Third_Party/FreeRTOS/Source/portable/GCC/ARM_CM3/portmacro.h **** 	#define portASSERT_IF_INTERRUPT_PRIORITY_INVALID() 	vPortValidateInterruptPriority()
 158:Middlewares/Third_Party/FreeRTOS/Source/portable/GCC/ARM_CM3/portmacro.h **** #endif
 159:Middlewares/Third_Party/FreeRTOS/Source/portable/GCC/ARM_CM3/portmacro.h **** 
 160:Middlewares/Third_Party/FreeRTOS/Source/portable/GCC/ARM_CM3/portmacro.h **** /* portNOP() is not required by this port. */
 161:Middlewares/Third_Party/FreeRTOS/Source/portable/GCC/ARM_CM3/portmacro.h **** #define portNOP()
 162:Middlewares/Third_Party/FreeRTOS/Source/portable/GCC/ARM_CM3/portmacro.h **** 
 163:Middlewares/Third_Party/FreeRTOS/Source/portable/GCC/ARM_CM3/portmacro.h **** #define portINLINE	__inline
 164:Middlewares/Third_Party/FreeRTOS/Source/portable/GCC/ARM_CM3/portmacro.h **** 
 165:Middlewares/Third_Party/FreeRTOS/Source/portable/GCC/ARM_CM3/portmacro.h **** #ifndef portFORCE_INLINE
 166:Middlewares/Third_Party/FreeRTOS/Source/portable/GCC/ARM_CM3/portmacro.h **** 	#define portFORCE_INLINE inline __attribute__(( always_inline))
 167:Middlewares/Third_Party/FreeRTOS/Source/portable/GCC/ARM_CM3/portmacro.h **** #endif
 168:Middlewares/Third_Party/FreeRTOS/Source/portable/GCC/ARM_CM3/portmacro.h **** 
 169:Middlewares/Third_Party/FreeRTOS/Source/portable/GCC/ARM_CM3/portmacro.h **** portFORCE_INLINE static BaseType_t xPortIsInsideInterrupt( void )
 170:Middlewares/Third_Party/FreeRTOS/Source/portable/GCC/ARM_CM3/portmacro.h **** {
 171:Middlewares/Third_Party/FreeRTOS/Source/portable/GCC/ARM_CM3/portmacro.h **** uint32_t ulCurrentInterrupt;
 172:Middlewares/Third_Party/FreeRTOS/Source/portable/GCC/ARM_CM3/portmacro.h **** BaseType_t xReturn;
 173:Middlewares/Third_Party/FreeRTOS/Source/portable/GCC/ARM_CM3/portmacro.h **** 
 174:Middlewares/Third_Party/FreeRTOS/Source/portable/GCC/ARM_CM3/portmacro.h **** 	/* Obtain the number of the currently executing interrupt. */
 175:Middlewares/Third_Party/FreeRTOS/Source/portable/GCC/ARM_CM3/portmacro.h **** 	__asm volatile( "mrs %0, ipsr" : "=r"( ulCurrentInterrupt ) :: "memory" );
 176:Middlewares/Third_Party/FreeRTOS/Source/portable/GCC/ARM_CM3/portmacro.h **** 
 177:Middlewares/Third_Party/FreeRTOS/Source/portable/GCC/ARM_CM3/portmacro.h **** 	if( ulCurrentInterrupt == 0 )
 178:Middlewares/Third_Party/FreeRTOS/Source/portable/GCC/ARM_CM3/portmacro.h **** 	{
 179:Middlewares/Third_Party/FreeRTOS/Source/portable/GCC/ARM_CM3/portmacro.h **** 		xReturn = pdFALSE;
 180:Middlewares/Third_Party/FreeRTOS/Source/portable/GCC/ARM_CM3/portmacro.h **** 	}
 181:Middlewares/Third_Party/FreeRTOS/Source/portable/GCC/ARM_CM3/portmacro.h **** 	else
 182:Middlewares/Third_Party/FreeRTOS/Source/portable/GCC/ARM_CM3/portmacro.h **** 	{
 183:Middlewares/Third_Party/FreeRTOS/Source/portable/GCC/ARM_CM3/portmacro.h **** 		xReturn = pdTRUE;
 184:Middlewares/Third_Party/FreeRTOS/Source/portable/GCC/ARM_CM3/portmacro.h **** 	}
 185:Middlewares/Third_Party/FreeRTOS/Source/portable/GCC/ARM_CM3/portmacro.h **** 
 186:Middlewares/Third_Party/FreeRTOS/Source/portable/GCC/ARM_CM3/portmacro.h **** 	return xReturn;
 187:Middlewares/Third_Party/FreeRTOS/Source/portable/GCC/ARM_CM3/portmacro.h **** }
 188:Middlewares/Third_Party/FreeRTOS/Source/portable/GCC/ARM_CM3/portmacro.h **** 
 189:Middlewares/Third_Party/FreeRTOS/Source/portable/GCC/ARM_CM3/portmacro.h **** /*-----------------------------------------------------------*/
 190:Middlewares/Third_Party/FreeRTOS/Source/portable/GCC/ARM_CM3/portmacro.h **** 
 191:Middlewares/Third_Party/FreeRTOS/Source/portable/GCC/ARM_CM3/portmacro.h **** portFORCE_INLINE static void vPortRaiseBASEPRI( void )
  46              		.loc 2 191 30 view .LVU6
  47              	.LBB45:
 192:Middlewares/Third_Party/FreeRTOS/Source/portable/GCC/ARM_CM3/portmacro.h **** {
 193:Middlewares/Third_Party/FreeRTOS/Source/portable/GCC/ARM_CM3/portmacro.h **** uint32_t ulNewBASEPRI;
  48              		.loc 2 193 1 view .LVU7
 194:Middlewares/Third_Party/FreeRTOS/Source/portable/GCC/ARM_CM3/portmacro.h **** 
 195:Middlewares/Third_Party/FreeRTOS/Source/portable/GCC/ARM_CM3/portmacro.h **** 	__asm volatile
  49              		.loc 2 195 2 view .LVU8
ARM GAS  /tmp/ccNSc7lp.s 			page 7


  50              		.syntax unified
  51              	@ 195 "Middlewares/Third_Party/FreeRTOS/Source/portable/GCC/ARM_CM3/portmacro.h" 1
  52 0006 4FF05003 			mov r3, #80												
  53 000a 83F31188 		msr basepri, r3											
  54 000e BFF36F8F 		isb														
  55 0012 BFF34F8F 		dsb														
  56              	
  57              	@ 0 "" 2
  58              	.LVL1:
  59              		.thumb
  60              		.syntax unified
  61              	.L3:
  62              		.loc 2 195 2 is_stmt 0 view .LVU9
  63              	.LBE45:
  64              	.LBE44:
  65              		.loc 1 98 3 is_stmt 1 discriminator 1 view .LVU10
  66              		.loc 1 98 3 discriminator 1 view .LVU11
  67 0016 FEE7     		b	.L3
  68              	.L2:
  69              		.loc 1 98 37 discriminator 2 view .LVU12
  70              	.LBB46:
  99:Middlewares/Third_Party/FreeRTOS/Source/event_groups.c **** 
 100:Middlewares/Third_Party/FreeRTOS/Source/event_groups.c **** 		#if( configASSERT_DEFINED == 1 )
 101:Middlewares/Third_Party/FreeRTOS/Source/event_groups.c **** 		{
 102:Middlewares/Third_Party/FreeRTOS/Source/event_groups.c **** 			/* Sanity check that the size of the structure used to declare a
 103:Middlewares/Third_Party/FreeRTOS/Source/event_groups.c **** 			variable of type StaticEventGroup_t equals the size of the real
 104:Middlewares/Third_Party/FreeRTOS/Source/event_groups.c **** 			event group structure. */
 105:Middlewares/Third_Party/FreeRTOS/Source/event_groups.c **** 			volatile size_t xSize = sizeof( StaticEventGroup_t );
  71              		.loc 1 105 4 discriminator 2 view .LVU13
  72              		.loc 1 105 20 is_stmt 0 discriminator 2 view .LVU14
  73 0018 2023     		movs	r3, #32
  74 001a 0193     		str	r3, [sp, #4]
 106:Middlewares/Third_Party/FreeRTOS/Source/event_groups.c **** 			configASSERT( xSize == sizeof( EventGroup_t ) );
  75              		.loc 1 106 4 is_stmt 1 discriminator 2 view .LVU15
  76 001c 019B     		ldr	r3, [sp, #4]
  77 001e 202B     		cmp	r3, #32
  78 0020 08D0     		beq	.L4
  79              		.loc 1 106 4 view .LVU16
  80              	.LBB47:
  81              	.LBI47:
 191:Middlewares/Third_Party/FreeRTOS/Source/portable/GCC/ARM_CM3/portmacro.h **** {
  82              		.loc 2 191 30 view .LVU17
  83              	.LBB48:
 193:Middlewares/Third_Party/FreeRTOS/Source/portable/GCC/ARM_CM3/portmacro.h **** 
  84              		.loc 2 193 1 view .LVU18
  85              		.loc 2 195 2 view .LVU19
  86              		.syntax unified
  87              	@ 195 "Middlewares/Third_Party/FreeRTOS/Source/portable/GCC/ARM_CM3/portmacro.h" 1
  88 0022 4FF05003 			mov r3, #80												
  89 0026 83F31188 		msr basepri, r3											
  90 002a BFF36F8F 		isb														
  91 002e BFF34F8F 		dsb														
  92              	
  93              	@ 0 "" 2
  94              	.LVL2:
  95              		.thumb
  96              		.syntax unified
ARM GAS  /tmp/ccNSc7lp.s 			page 8


  97              	.L5:
  98              		.loc 2 195 2 is_stmt 0 view .LVU20
  99              	.LBE48:
 100              	.LBE47:
 101              		.loc 1 106 4 is_stmt 1 discriminator 2 view .LVU21
 102              		.loc 1 106 4 discriminator 2 view .LVU22
 103 0032 FEE7     		b	.L5
 104              	.L4:
 105              		.loc 1 106 51 view .LVU23
 106              	.LBE46:
 107:Middlewares/Third_Party/FreeRTOS/Source/event_groups.c **** 		}
 108:Middlewares/Third_Party/FreeRTOS/Source/event_groups.c **** 		#endif /* configASSERT_DEFINED */
 109:Middlewares/Third_Party/FreeRTOS/Source/event_groups.c **** 
 110:Middlewares/Third_Party/FreeRTOS/Source/event_groups.c **** 		/* The user has provided a statically allocated event group - use it. */
 111:Middlewares/Third_Party/FreeRTOS/Source/event_groups.c **** 		pxEventBits = ( EventGroup_t * ) pxEventGroupBuffer; /*lint !e740 EventGroup_t and StaticEventGro
 107              		.loc 1 111 3 view .LVU24
 108              	.LVL3:
 112:Middlewares/Third_Party/FreeRTOS/Source/event_groups.c **** 
 113:Middlewares/Third_Party/FreeRTOS/Source/event_groups.c **** 		if( pxEventBits != NULL )
 109              		.loc 1 113 3 view .LVU25
 114:Middlewares/Third_Party/FreeRTOS/Source/event_groups.c **** 		{
 115:Middlewares/Third_Party/FreeRTOS/Source/event_groups.c **** 			pxEventBits->uxEventBits = 0;
 110              		.loc 1 115 4 view .LVU26
 111              		.loc 1 115 29 is_stmt 0 view .LVU27
 112 0034 0023     		movs	r3, #0
 113 0036 40F8043B 		str	r3, [r0], #4
 114              	.LVL4:
 116:Middlewares/Third_Party/FreeRTOS/Source/event_groups.c **** 			vListInitialise( &( pxEventBits->xTasksWaitingForBits ) );
 115              		.loc 1 116 4 is_stmt 1 view .LVU28
 116 003a FFF7FEFF 		bl	vListInitialise
 117              	.LVL5:
 117:Middlewares/Third_Party/FreeRTOS/Source/event_groups.c **** 
 118:Middlewares/Third_Party/FreeRTOS/Source/event_groups.c **** 			#if( configSUPPORT_DYNAMIC_ALLOCATION == 1 )
 119:Middlewares/Third_Party/FreeRTOS/Source/event_groups.c **** 			{
 120:Middlewares/Third_Party/FreeRTOS/Source/event_groups.c **** 				/* Both static and dynamic allocation can be used, so note that
 121:Middlewares/Third_Party/FreeRTOS/Source/event_groups.c **** 				this event group was created statically in case the event group
 122:Middlewares/Third_Party/FreeRTOS/Source/event_groups.c **** 				is later deleted. */
 123:Middlewares/Third_Party/FreeRTOS/Source/event_groups.c **** 				pxEventBits->ucStaticallyAllocated = pdTRUE;
 118              		.loc 1 123 5 view .LVU29
 119              		.loc 1 123 40 is_stmt 0 view .LVU30
 120 003e 0123     		movs	r3, #1
 124:Middlewares/Third_Party/FreeRTOS/Source/event_groups.c **** 			}
 125:Middlewares/Third_Party/FreeRTOS/Source/event_groups.c **** 			#endif /* configSUPPORT_DYNAMIC_ALLOCATION */
 126:Middlewares/Third_Party/FreeRTOS/Source/event_groups.c **** 
 127:Middlewares/Third_Party/FreeRTOS/Source/event_groups.c **** 			traceEVENT_GROUP_CREATE( pxEventBits );
 128:Middlewares/Third_Party/FreeRTOS/Source/event_groups.c **** 		}
 129:Middlewares/Third_Party/FreeRTOS/Source/event_groups.c **** 		else
 130:Middlewares/Third_Party/FreeRTOS/Source/event_groups.c **** 		{
 131:Middlewares/Third_Party/FreeRTOS/Source/event_groups.c **** 			traceEVENT_GROUP_CREATE_FAILED();
 132:Middlewares/Third_Party/FreeRTOS/Source/event_groups.c **** 		}
 133:Middlewares/Third_Party/FreeRTOS/Source/event_groups.c **** 
 134:Middlewares/Third_Party/FreeRTOS/Source/event_groups.c **** 		return ( EventGroupHandle_t ) pxEventBits;
 135:Middlewares/Third_Party/FreeRTOS/Source/event_groups.c **** 	}
 121              		.loc 1 135 2 view .LVU31
 122 0040 2046     		mov	r0, r4
 123:Middlewares/Third_Party/FreeRTOS/Source/event_groups.c **** 			}
 123              		.loc 1 123 40 view .LVU32
ARM GAS  /tmp/ccNSc7lp.s 			page 9


 124 0042 2377     		strb	r3, [r4, #28]
 127:Middlewares/Third_Party/FreeRTOS/Source/event_groups.c **** 		}
 125              		.loc 1 127 42 is_stmt 1 view .LVU33
 131:Middlewares/Third_Party/FreeRTOS/Source/event_groups.c **** 		}
 126              		.loc 1 131 36 view .LVU34
 134:Middlewares/Third_Party/FreeRTOS/Source/event_groups.c **** 	}
 127              		.loc 1 134 3 view .LVU35
 128              		.loc 1 135 2 is_stmt 0 view .LVU36
 129 0044 02B0     		add	sp, sp, #8
 130              		.cfi_def_cfa_offset 8
 131              		@ sp needed
 132 0046 10BD     		pop	{r4, pc}
 133              		.loc 1 135 2 view .LVU37
 134              		.cfi_endproc
 135              	.LFE4:
 137              		.section	.text.xEventGroupCreate,"ax",%progbits
 138              		.align	1
 139              		.global	xEventGroupCreate
 140              		.syntax unified
 141              		.thumb
 142              		.thumb_func
 144              	xEventGroupCreate:
 145              	.LFB5:
 136:Middlewares/Third_Party/FreeRTOS/Source/event_groups.c **** 
 137:Middlewares/Third_Party/FreeRTOS/Source/event_groups.c **** #endif /* configSUPPORT_STATIC_ALLOCATION */
 138:Middlewares/Third_Party/FreeRTOS/Source/event_groups.c **** /*-----------------------------------------------------------*/
 139:Middlewares/Third_Party/FreeRTOS/Source/event_groups.c **** 
 140:Middlewares/Third_Party/FreeRTOS/Source/event_groups.c **** #if( configSUPPORT_DYNAMIC_ALLOCATION == 1 )
 141:Middlewares/Third_Party/FreeRTOS/Source/event_groups.c **** 
 142:Middlewares/Third_Party/FreeRTOS/Source/event_groups.c **** 	EventGroupHandle_t xEventGroupCreate( void )
 143:Middlewares/Third_Party/FreeRTOS/Source/event_groups.c **** 	{
 146              		.loc 1 143 2 is_stmt 1 view -0
 147              		.cfi_startproc
 148              		@ args = 0, pretend = 0, frame = 0
 149              		@ frame_needed = 0, uses_anonymous_args = 0
 144:Middlewares/Third_Party/FreeRTOS/Source/event_groups.c **** 	EventGroup_t *pxEventBits;
 150              		.loc 1 144 2 view .LVU39
 145:Middlewares/Third_Party/FreeRTOS/Source/event_groups.c **** 
 146:Middlewares/Third_Party/FreeRTOS/Source/event_groups.c **** 		/* Allocate the event group. */
 147:Middlewares/Third_Party/FreeRTOS/Source/event_groups.c **** 		pxEventBits = ( EventGroup_t * ) pvPortMalloc( sizeof( EventGroup_t ) );
 151              		.loc 1 147 3 view .LVU40
 143:Middlewares/Third_Party/FreeRTOS/Source/event_groups.c **** 	EventGroup_t *pxEventBits;
 152              		.loc 1 143 2 is_stmt 0 view .LVU41
 153 0000 38B5     		push	{r3, r4, r5, lr}
 154              		.cfi_def_cfa_offset 16
 155              		.cfi_offset 3, -16
 156              		.cfi_offset 4, -12
 157              		.cfi_offset 5, -8
 158              		.cfi_offset 14, -4
 159              		.loc 1 147 36 view .LVU42
 160 0002 2020     		movs	r0, #32
 161 0004 FFF7FEFF 		bl	pvPortMalloc
 162              	.LVL6:
 148:Middlewares/Third_Party/FreeRTOS/Source/event_groups.c **** 
 149:Middlewares/Third_Party/FreeRTOS/Source/event_groups.c **** 		if( pxEventBits != NULL )
 163              		.loc 1 149 3 is_stmt 1 view .LVU43
 164              		.loc 1 149 5 is_stmt 0 view .LVU44
ARM GAS  /tmp/ccNSc7lp.s 			page 10


 165 0008 0446     		mov	r4, r0
 166 000a 28B1     		cbz	r0, .L6
 150:Middlewares/Third_Party/FreeRTOS/Source/event_groups.c **** 		{
 151:Middlewares/Third_Party/FreeRTOS/Source/event_groups.c **** 			pxEventBits->uxEventBits = 0;
 167              		.loc 1 151 4 is_stmt 1 view .LVU45
 168              		.loc 1 151 29 is_stmt 0 view .LVU46
 169 000c 0025     		movs	r5, #0
 170 000e 40F8045B 		str	r5, [r0], #4
 171              	.LVL7:
 152:Middlewares/Third_Party/FreeRTOS/Source/event_groups.c **** 			vListInitialise( &( pxEventBits->xTasksWaitingForBits ) );
 172              		.loc 1 152 4 is_stmt 1 view .LVU47
 173 0012 FFF7FEFF 		bl	vListInitialise
 174              	.LVL8:
 153:Middlewares/Third_Party/FreeRTOS/Source/event_groups.c **** 
 154:Middlewares/Third_Party/FreeRTOS/Source/event_groups.c **** 			#if( configSUPPORT_STATIC_ALLOCATION == 1 )
 155:Middlewares/Third_Party/FreeRTOS/Source/event_groups.c **** 			{
 156:Middlewares/Third_Party/FreeRTOS/Source/event_groups.c **** 				/* Both static and dynamic allocation can be used, so note this
 157:Middlewares/Third_Party/FreeRTOS/Source/event_groups.c **** 				event group was allocated statically in case the event group is
 158:Middlewares/Third_Party/FreeRTOS/Source/event_groups.c **** 				later deleted. */
 159:Middlewares/Third_Party/FreeRTOS/Source/event_groups.c **** 				pxEventBits->ucStaticallyAllocated = pdFALSE;
 175              		.loc 1 159 5 view .LVU48
 176              		.loc 1 159 40 is_stmt 0 view .LVU49
 177 0016 2577     		strb	r5, [r4, #28]
 160:Middlewares/Third_Party/FreeRTOS/Source/event_groups.c **** 			}
 161:Middlewares/Third_Party/FreeRTOS/Source/event_groups.c **** 			#endif /* configSUPPORT_STATIC_ALLOCATION */
 162:Middlewares/Third_Party/FreeRTOS/Source/event_groups.c **** 
 163:Middlewares/Third_Party/FreeRTOS/Source/event_groups.c **** 			traceEVENT_GROUP_CREATE( pxEventBits );
 178              		.loc 1 163 42 is_stmt 1 view .LVU50
 164:Middlewares/Third_Party/FreeRTOS/Source/event_groups.c **** 		}
 165:Middlewares/Third_Party/FreeRTOS/Source/event_groups.c **** 		else
 166:Middlewares/Third_Party/FreeRTOS/Source/event_groups.c **** 		{
 167:Middlewares/Third_Party/FreeRTOS/Source/event_groups.c **** 			traceEVENT_GROUP_CREATE_FAILED();
 179              		.loc 1 167 36 view .LVU51
 168:Middlewares/Third_Party/FreeRTOS/Source/event_groups.c **** 		}
 169:Middlewares/Third_Party/FreeRTOS/Source/event_groups.c **** 
 170:Middlewares/Third_Party/FreeRTOS/Source/event_groups.c **** 		return ( EventGroupHandle_t ) pxEventBits;
 180              		.loc 1 170 3 view .LVU52
 181              	.L6:
 171:Middlewares/Third_Party/FreeRTOS/Source/event_groups.c **** 	}
 182              		.loc 1 171 2 is_stmt 0 view .LVU53
 183 0018 2046     		mov	r0, r4
 184 001a 38BD     		pop	{r3, r4, r5, pc}
 185              		.loc 1 171 2 view .LVU54
 186              		.cfi_endproc
 187              	.LFE5:
 189              		.section	.text.xEventGroupWaitBits,"ax",%progbits
 190              		.align	1
 191              		.global	xEventGroupWaitBits
 192              		.syntax unified
 193              		.thumb
 194              		.thumb_func
 196              	xEventGroupWaitBits:
 197              	.LVL9:
 198              	.LFB7:
 172:Middlewares/Third_Party/FreeRTOS/Source/event_groups.c **** 
 173:Middlewares/Third_Party/FreeRTOS/Source/event_groups.c **** #endif /* configSUPPORT_DYNAMIC_ALLOCATION */
 174:Middlewares/Third_Party/FreeRTOS/Source/event_groups.c **** /*-----------------------------------------------------------*/
ARM GAS  /tmp/ccNSc7lp.s 			page 11


 175:Middlewares/Third_Party/FreeRTOS/Source/event_groups.c **** 
 176:Middlewares/Third_Party/FreeRTOS/Source/event_groups.c **** EventBits_t xEventGroupSync( EventGroupHandle_t xEventGroup, const EventBits_t uxBitsToSet, const E
 177:Middlewares/Third_Party/FreeRTOS/Source/event_groups.c **** {
 178:Middlewares/Third_Party/FreeRTOS/Source/event_groups.c **** EventBits_t uxOriginalBitValue, uxReturn;
 179:Middlewares/Third_Party/FreeRTOS/Source/event_groups.c **** EventGroup_t *pxEventBits = ( EventGroup_t * ) xEventGroup;
 180:Middlewares/Third_Party/FreeRTOS/Source/event_groups.c **** BaseType_t xAlreadyYielded;
 181:Middlewares/Third_Party/FreeRTOS/Source/event_groups.c **** BaseType_t xTimeoutOccurred = pdFALSE;
 182:Middlewares/Third_Party/FreeRTOS/Source/event_groups.c **** 
 183:Middlewares/Third_Party/FreeRTOS/Source/event_groups.c **** 	configASSERT( ( uxBitsToWaitFor & eventEVENT_BITS_CONTROL_BYTES ) == 0 );
 184:Middlewares/Third_Party/FreeRTOS/Source/event_groups.c **** 	configASSERT( uxBitsToWaitFor != 0 );
 185:Middlewares/Third_Party/FreeRTOS/Source/event_groups.c **** 	#if ( ( INCLUDE_xTaskGetSchedulerState == 1 ) || ( configUSE_TIMERS == 1 ) )
 186:Middlewares/Third_Party/FreeRTOS/Source/event_groups.c **** 	{
 187:Middlewares/Third_Party/FreeRTOS/Source/event_groups.c **** 		configASSERT( !( ( xTaskGetSchedulerState() == taskSCHEDULER_SUSPENDED ) && ( xTicksToWait != 0 )
 188:Middlewares/Third_Party/FreeRTOS/Source/event_groups.c **** 	}
 189:Middlewares/Third_Party/FreeRTOS/Source/event_groups.c **** 	#endif
 190:Middlewares/Third_Party/FreeRTOS/Source/event_groups.c **** 
 191:Middlewares/Third_Party/FreeRTOS/Source/event_groups.c **** 	vTaskSuspendAll();
 192:Middlewares/Third_Party/FreeRTOS/Source/event_groups.c **** 	{
 193:Middlewares/Third_Party/FreeRTOS/Source/event_groups.c **** 		uxOriginalBitValue = pxEventBits->uxEventBits;
 194:Middlewares/Third_Party/FreeRTOS/Source/event_groups.c **** 
 195:Middlewares/Third_Party/FreeRTOS/Source/event_groups.c **** 		( void ) xEventGroupSetBits( xEventGroup, uxBitsToSet );
 196:Middlewares/Third_Party/FreeRTOS/Source/event_groups.c **** 
 197:Middlewares/Third_Party/FreeRTOS/Source/event_groups.c **** 		if( ( ( uxOriginalBitValue | uxBitsToSet ) & uxBitsToWaitFor ) == uxBitsToWaitFor )
 198:Middlewares/Third_Party/FreeRTOS/Source/event_groups.c **** 		{
 199:Middlewares/Third_Party/FreeRTOS/Source/event_groups.c **** 			/* All the rendezvous bits are now set - no need to block. */
 200:Middlewares/Third_Party/FreeRTOS/Source/event_groups.c **** 			uxReturn = ( uxOriginalBitValue | uxBitsToSet );
 201:Middlewares/Third_Party/FreeRTOS/Source/event_groups.c **** 
 202:Middlewares/Third_Party/FreeRTOS/Source/event_groups.c **** 			/* Rendezvous always clear the bits.  They will have been cleared
 203:Middlewares/Third_Party/FreeRTOS/Source/event_groups.c **** 			already unless this is the only task in the rendezvous. */
 204:Middlewares/Third_Party/FreeRTOS/Source/event_groups.c **** 			pxEventBits->uxEventBits &= ~uxBitsToWaitFor;
 205:Middlewares/Third_Party/FreeRTOS/Source/event_groups.c **** 
 206:Middlewares/Third_Party/FreeRTOS/Source/event_groups.c **** 			xTicksToWait = 0;
 207:Middlewares/Third_Party/FreeRTOS/Source/event_groups.c **** 		}
 208:Middlewares/Third_Party/FreeRTOS/Source/event_groups.c **** 		else
 209:Middlewares/Third_Party/FreeRTOS/Source/event_groups.c **** 		{
 210:Middlewares/Third_Party/FreeRTOS/Source/event_groups.c **** 			if( xTicksToWait != ( TickType_t ) 0 )
 211:Middlewares/Third_Party/FreeRTOS/Source/event_groups.c **** 			{
 212:Middlewares/Third_Party/FreeRTOS/Source/event_groups.c **** 				traceEVENT_GROUP_SYNC_BLOCK( xEventGroup, uxBitsToSet, uxBitsToWaitFor );
 213:Middlewares/Third_Party/FreeRTOS/Source/event_groups.c **** 
 214:Middlewares/Third_Party/FreeRTOS/Source/event_groups.c **** 				/* Store the bits that the calling task is waiting for in the
 215:Middlewares/Third_Party/FreeRTOS/Source/event_groups.c **** 				task's event list item so the kernel knows when a match is
 216:Middlewares/Third_Party/FreeRTOS/Source/event_groups.c **** 				found.  Then enter the blocked state. */
 217:Middlewares/Third_Party/FreeRTOS/Source/event_groups.c **** 				vTaskPlaceOnUnorderedEventList( &( pxEventBits->xTasksWaitingForBits ), ( uxBitsToWaitFor | eve
 218:Middlewares/Third_Party/FreeRTOS/Source/event_groups.c **** 
 219:Middlewares/Third_Party/FreeRTOS/Source/event_groups.c **** 				/* This assignment is obsolete as uxReturn will get set after
 220:Middlewares/Third_Party/FreeRTOS/Source/event_groups.c **** 				the task unblocks, but some compilers mistakenly generate a
 221:Middlewares/Third_Party/FreeRTOS/Source/event_groups.c **** 				warning about uxReturn being returned without being set if the
 222:Middlewares/Third_Party/FreeRTOS/Source/event_groups.c **** 				assignment is omitted. */
 223:Middlewares/Third_Party/FreeRTOS/Source/event_groups.c **** 				uxReturn = 0;
 224:Middlewares/Third_Party/FreeRTOS/Source/event_groups.c **** 			}
 225:Middlewares/Third_Party/FreeRTOS/Source/event_groups.c **** 			else
 226:Middlewares/Third_Party/FreeRTOS/Source/event_groups.c **** 			{
 227:Middlewares/Third_Party/FreeRTOS/Source/event_groups.c **** 				/* The rendezvous bits were not set, but no block time was
 228:Middlewares/Third_Party/FreeRTOS/Source/event_groups.c **** 				specified - just return the current event bit value. */
 229:Middlewares/Third_Party/FreeRTOS/Source/event_groups.c **** 				uxReturn = pxEventBits->uxEventBits;
 230:Middlewares/Third_Party/FreeRTOS/Source/event_groups.c **** 				xTimeoutOccurred = pdTRUE;
 231:Middlewares/Third_Party/FreeRTOS/Source/event_groups.c **** 			}
ARM GAS  /tmp/ccNSc7lp.s 			page 12


 232:Middlewares/Third_Party/FreeRTOS/Source/event_groups.c **** 		}
 233:Middlewares/Third_Party/FreeRTOS/Source/event_groups.c **** 	}
 234:Middlewares/Third_Party/FreeRTOS/Source/event_groups.c **** 	xAlreadyYielded = xTaskResumeAll();
 235:Middlewares/Third_Party/FreeRTOS/Source/event_groups.c **** 
 236:Middlewares/Third_Party/FreeRTOS/Source/event_groups.c **** 	if( xTicksToWait != ( TickType_t ) 0 )
 237:Middlewares/Third_Party/FreeRTOS/Source/event_groups.c **** 	{
 238:Middlewares/Third_Party/FreeRTOS/Source/event_groups.c **** 		if( xAlreadyYielded == pdFALSE )
 239:Middlewares/Third_Party/FreeRTOS/Source/event_groups.c **** 		{
 240:Middlewares/Third_Party/FreeRTOS/Source/event_groups.c **** 			portYIELD_WITHIN_API();
 241:Middlewares/Third_Party/FreeRTOS/Source/event_groups.c **** 		}
 242:Middlewares/Third_Party/FreeRTOS/Source/event_groups.c **** 		else
 243:Middlewares/Third_Party/FreeRTOS/Source/event_groups.c **** 		{
 244:Middlewares/Third_Party/FreeRTOS/Source/event_groups.c **** 			mtCOVERAGE_TEST_MARKER();
 245:Middlewares/Third_Party/FreeRTOS/Source/event_groups.c **** 		}
 246:Middlewares/Third_Party/FreeRTOS/Source/event_groups.c **** 
 247:Middlewares/Third_Party/FreeRTOS/Source/event_groups.c **** 		/* The task blocked to wait for its required bits to be set - at this
 248:Middlewares/Third_Party/FreeRTOS/Source/event_groups.c **** 		point either the required bits were set or the block time expired.  If
 249:Middlewares/Third_Party/FreeRTOS/Source/event_groups.c **** 		the required bits were set they will have been stored in the task's
 250:Middlewares/Third_Party/FreeRTOS/Source/event_groups.c **** 		event list item, and they should now be retrieved then cleared. */
 251:Middlewares/Third_Party/FreeRTOS/Source/event_groups.c **** 		uxReturn = uxTaskResetEventItemValue();
 252:Middlewares/Third_Party/FreeRTOS/Source/event_groups.c **** 
 253:Middlewares/Third_Party/FreeRTOS/Source/event_groups.c **** 		if( ( uxReturn & eventUNBLOCKED_DUE_TO_BIT_SET ) == ( EventBits_t ) 0 )
 254:Middlewares/Third_Party/FreeRTOS/Source/event_groups.c **** 		{
 255:Middlewares/Third_Party/FreeRTOS/Source/event_groups.c **** 			/* The task timed out, just return the current event bit value. */
 256:Middlewares/Third_Party/FreeRTOS/Source/event_groups.c **** 			taskENTER_CRITICAL();
 257:Middlewares/Third_Party/FreeRTOS/Source/event_groups.c **** 			{
 258:Middlewares/Third_Party/FreeRTOS/Source/event_groups.c **** 				uxReturn = pxEventBits->uxEventBits;
 259:Middlewares/Third_Party/FreeRTOS/Source/event_groups.c **** 
 260:Middlewares/Third_Party/FreeRTOS/Source/event_groups.c **** 				/* Although the task got here because it timed out before the
 261:Middlewares/Third_Party/FreeRTOS/Source/event_groups.c **** 				bits it was waiting for were set, it is possible that since it
 262:Middlewares/Third_Party/FreeRTOS/Source/event_groups.c **** 				unblocked another task has set the bits.  If this is the case
 263:Middlewares/Third_Party/FreeRTOS/Source/event_groups.c **** 				then it needs to clear the bits before exiting. */
 264:Middlewares/Third_Party/FreeRTOS/Source/event_groups.c **** 				if( ( uxReturn & uxBitsToWaitFor ) == uxBitsToWaitFor )
 265:Middlewares/Third_Party/FreeRTOS/Source/event_groups.c **** 				{
 266:Middlewares/Third_Party/FreeRTOS/Source/event_groups.c **** 					pxEventBits->uxEventBits &= ~uxBitsToWaitFor;
 267:Middlewares/Third_Party/FreeRTOS/Source/event_groups.c **** 				}
 268:Middlewares/Third_Party/FreeRTOS/Source/event_groups.c **** 				else
 269:Middlewares/Third_Party/FreeRTOS/Source/event_groups.c **** 				{
 270:Middlewares/Third_Party/FreeRTOS/Source/event_groups.c **** 					mtCOVERAGE_TEST_MARKER();
 271:Middlewares/Third_Party/FreeRTOS/Source/event_groups.c **** 				}
 272:Middlewares/Third_Party/FreeRTOS/Source/event_groups.c **** 			}
 273:Middlewares/Third_Party/FreeRTOS/Source/event_groups.c **** 			taskEXIT_CRITICAL();
 274:Middlewares/Third_Party/FreeRTOS/Source/event_groups.c **** 
 275:Middlewares/Third_Party/FreeRTOS/Source/event_groups.c **** 			xTimeoutOccurred = pdTRUE;
 276:Middlewares/Third_Party/FreeRTOS/Source/event_groups.c **** 		}
 277:Middlewares/Third_Party/FreeRTOS/Source/event_groups.c **** 		else
 278:Middlewares/Third_Party/FreeRTOS/Source/event_groups.c **** 		{
 279:Middlewares/Third_Party/FreeRTOS/Source/event_groups.c **** 			/* The task unblocked because the bits were set. */
 280:Middlewares/Third_Party/FreeRTOS/Source/event_groups.c **** 		}
 281:Middlewares/Third_Party/FreeRTOS/Source/event_groups.c **** 
 282:Middlewares/Third_Party/FreeRTOS/Source/event_groups.c **** 		/* Control bits might be set as the task had blocked should not be
 283:Middlewares/Third_Party/FreeRTOS/Source/event_groups.c **** 		returned. */
 284:Middlewares/Third_Party/FreeRTOS/Source/event_groups.c **** 		uxReturn &= ~eventEVENT_BITS_CONTROL_BYTES;
 285:Middlewares/Third_Party/FreeRTOS/Source/event_groups.c **** 	}
 286:Middlewares/Third_Party/FreeRTOS/Source/event_groups.c **** 
 287:Middlewares/Third_Party/FreeRTOS/Source/event_groups.c **** 	traceEVENT_GROUP_SYNC_END( xEventGroup, uxBitsToSet, uxBitsToWaitFor, xTimeoutOccurred );
 288:Middlewares/Third_Party/FreeRTOS/Source/event_groups.c **** 
ARM GAS  /tmp/ccNSc7lp.s 			page 13


 289:Middlewares/Third_Party/FreeRTOS/Source/event_groups.c **** 	/* Prevent compiler warnings when trace macros are not used. */
 290:Middlewares/Third_Party/FreeRTOS/Source/event_groups.c **** 	( void ) xTimeoutOccurred;
 291:Middlewares/Third_Party/FreeRTOS/Source/event_groups.c **** 
 292:Middlewares/Third_Party/FreeRTOS/Source/event_groups.c **** 	return uxReturn;
 293:Middlewares/Third_Party/FreeRTOS/Source/event_groups.c **** }
 294:Middlewares/Third_Party/FreeRTOS/Source/event_groups.c **** /*-----------------------------------------------------------*/
 295:Middlewares/Third_Party/FreeRTOS/Source/event_groups.c **** 
 296:Middlewares/Third_Party/FreeRTOS/Source/event_groups.c **** EventBits_t xEventGroupWaitBits( EventGroupHandle_t xEventGroup, const EventBits_t uxBitsToWaitFor,
 297:Middlewares/Third_Party/FreeRTOS/Source/event_groups.c **** {
 199              		.loc 1 297 1 is_stmt 1 view -0
 200              		.cfi_startproc
 201              		@ args = 4, pretend = 0, frame = 0
 202              		@ frame_needed = 0, uses_anonymous_args = 0
 203              		.loc 1 297 1 is_stmt 0 view .LVU56
 204 0000 2DE9F843 		push	{r3, r4, r5, r6, r7, r8, r9, lr}
 205              		.cfi_def_cfa_offset 32
 206              		.cfi_offset 3, -32
 207              		.cfi_offset 4, -28
 208              		.cfi_offset 5, -24
 209              		.cfi_offset 6, -20
 210              		.cfi_offset 7, -16
 211              		.cfi_offset 8, -12
 212              		.cfi_offset 9, -8
 213              		.cfi_offset 14, -4
 214              		.loc 1 297 1 view .LVU57
 215 0004 DDF82090 		ldr	r9, [sp, #32]
 216 0008 0C46     		mov	r4, r1
 217 000a 1746     		mov	r7, r2
 218 000c 9846     		mov	r8, r3
 298:Middlewares/Third_Party/FreeRTOS/Source/event_groups.c **** EventGroup_t *pxEventBits = ( EventGroup_t * ) xEventGroup;
 219              		.loc 1 298 1 is_stmt 1 view .LVU58
 220              	.LVL10:
 299:Middlewares/Third_Party/FreeRTOS/Source/event_groups.c **** EventBits_t uxReturn, uxControlBits = 0;
 221              		.loc 1 299 1 view .LVU59
 300:Middlewares/Third_Party/FreeRTOS/Source/event_groups.c **** BaseType_t xWaitConditionMet, xAlreadyYielded;
 222              		.loc 1 300 1 view .LVU60
 301:Middlewares/Third_Party/FreeRTOS/Source/event_groups.c **** BaseType_t xTimeoutOccurred = pdFALSE;
 223              		.loc 1 301 1 view .LVU61
 302:Middlewares/Third_Party/FreeRTOS/Source/event_groups.c **** 
 303:Middlewares/Third_Party/FreeRTOS/Source/event_groups.c **** 	/* Check the user is not attempting to wait on the bits used by the kernel
 304:Middlewares/Third_Party/FreeRTOS/Source/event_groups.c **** 	itself, and that at least one bit is being requested. */
 305:Middlewares/Third_Party/FreeRTOS/Source/event_groups.c **** 	configASSERT( xEventGroup );
 224              		.loc 1 305 2 view .LVU62
 225 000e 0646     		mov	r6, r0
 226 0010 40B9     		cbnz	r0, .L12
 227              		.loc 1 305 2 view .LVU63
 228              	.LBB62:
 229              	.LBI62:
 191:Middlewares/Third_Party/FreeRTOS/Source/portable/GCC/ARM_CM3/portmacro.h **** {
 230              		.loc 2 191 30 view .LVU64
 231              	.LBB63:
 193:Middlewares/Third_Party/FreeRTOS/Source/portable/GCC/ARM_CM3/portmacro.h **** 
 232              		.loc 2 193 1 view .LVU65
 233              		.loc 2 195 2 view .LVU66
 234              		.syntax unified
 235              	@ 195 "Middlewares/Third_Party/FreeRTOS/Source/portable/GCC/ARM_CM3/portmacro.h" 1
 236 0012 4FF05003 			mov r3, #80												
ARM GAS  /tmp/ccNSc7lp.s 			page 14


 237 0016 83F31188 		msr basepri, r3											
 238 001a BFF36F8F 		isb														
 239 001e BFF34F8F 		dsb														
 240              	
 241              	@ 0 "" 2
 242              	.LVL11:
 243              		.thumb
 244              		.syntax unified
 245              	.L13:
 246              		.loc 2 195 2 is_stmt 0 view .LVU67
 247              	.LBE63:
 248              	.LBE62:
 249              		.loc 1 305 2 is_stmt 1 discriminator 1 view .LVU68
 250              		.loc 1 305 2 discriminator 1 view .LVU69
 251 0022 FEE7     		b	.L13
 252              	.LVL12:
 253              	.L12:
 254              		.loc 1 305 29 discriminator 2 view .LVU70
 306:Middlewares/Third_Party/FreeRTOS/Source/event_groups.c **** 	configASSERT( ( uxBitsToWaitFor & eventEVENT_BITS_CONTROL_BYTES ) == 0 );
 255              		.loc 1 306 2 discriminator 2 view .LVU71
 256 0024 B1F1807F 		cmp	r1, #16777216
 257 0028 08D3     		bcc	.L14
 258              		.loc 1 306 2 view .LVU72
 259              	.LBB64:
 260              	.LBI64:
 191:Middlewares/Third_Party/FreeRTOS/Source/portable/GCC/ARM_CM3/portmacro.h **** {
 261              		.loc 2 191 30 view .LVU73
 262              	.LBB65:
 193:Middlewares/Third_Party/FreeRTOS/Source/portable/GCC/ARM_CM3/portmacro.h **** 
 263              		.loc 2 193 1 view .LVU74
 264              		.loc 2 195 2 view .LVU75
 265              		.syntax unified
 266              	@ 195 "Middlewares/Third_Party/FreeRTOS/Source/portable/GCC/ARM_CM3/portmacro.h" 1
 267 002a 4FF05003 			mov r3, #80												
 268 002e 83F31188 		msr basepri, r3											
 269 0032 BFF36F8F 		isb														
 270 0036 BFF34F8F 		dsb														
 271              	
 272              	@ 0 "" 2
 273              	.LVL13:
 274              		.thumb
 275              		.syntax unified
 276              	.L15:
 277              		.loc 2 195 2 is_stmt 0 view .LVU76
 278              	.LBE65:
 279              	.LBE64:
 280              		.loc 1 306 2 is_stmt 1 discriminator 2 view .LVU77
 281              		.loc 1 306 2 discriminator 2 view .LVU78
 282 003a FEE7     		b	.L15
 283              	.LVL14:
 284              	.L14:
 285              		.loc 1 306 74 discriminator 2 view .LVU79
 307:Middlewares/Third_Party/FreeRTOS/Source/event_groups.c **** 	configASSERT( uxBitsToWaitFor != 0 );
 286              		.loc 1 307 2 discriminator 2 view .LVU80
 287 003c 41B9     		cbnz	r1, .L16
 288              		.loc 1 307 2 view .LVU81
 289              	.LBB66:
ARM GAS  /tmp/ccNSc7lp.s 			page 15


 290              	.LBI66:
 191:Middlewares/Third_Party/FreeRTOS/Source/portable/GCC/ARM_CM3/portmacro.h **** {
 291              		.loc 2 191 30 view .LVU82
 292              	.LBB67:
 193:Middlewares/Third_Party/FreeRTOS/Source/portable/GCC/ARM_CM3/portmacro.h **** 
 293              		.loc 2 193 1 view .LVU83
 294              		.loc 2 195 2 view .LVU84
 295              		.syntax unified
 296              	@ 195 "Middlewares/Third_Party/FreeRTOS/Source/portable/GCC/ARM_CM3/portmacro.h" 1
 297 003e 4FF05003 			mov r3, #80												
 298 0042 83F31188 		msr basepri, r3											
 299 0046 BFF36F8F 		isb														
 300 004a BFF34F8F 		dsb														
 301              	
 302              	@ 0 "" 2
 303              	.LVL15:
 304              		.thumb
 305              		.syntax unified
 306              	.L17:
 307              		.loc 2 195 2 is_stmt 0 view .LVU85
 308              	.LBE67:
 309              	.LBE66:
 310              		.loc 1 307 2 is_stmt 1 discriminator 3 view .LVU86
 311              		.loc 1 307 2 discriminator 3 view .LVU87
 312 004e FEE7     		b	.L17
 313              	.LVL16:
 314              	.L16:
 315              		.loc 1 307 38 discriminator 2 view .LVU88
 308:Middlewares/Third_Party/FreeRTOS/Source/event_groups.c **** 	#if ( ( INCLUDE_xTaskGetSchedulerState == 1 ) || ( configUSE_TIMERS == 1 ) )
 309:Middlewares/Third_Party/FreeRTOS/Source/event_groups.c **** 	{
 310:Middlewares/Third_Party/FreeRTOS/Source/event_groups.c **** 		configASSERT( !( ( xTaskGetSchedulerState() == taskSCHEDULER_SUSPENDED ) && ( xTicksToWait != 0 )
 316              		.loc 1 310 3 discriminator 2 view .LVU89
 317 0050 FFF7FEFF 		bl	xTaskGetSchedulerState
 318              	.LVL17:
 319              		.loc 1 310 3 is_stmt 0 discriminator 2 view .LVU90
 320 0054 D0B9     		cbnz	r0, .L18
 321 0056 B9F1000F 		cmp	r9, #0
 322 005a 08D0     		beq	.L19
 323              		.loc 1 310 3 is_stmt 1 view .LVU91
 324              	.LBB68:
 325              	.LBI68:
 191:Middlewares/Third_Party/FreeRTOS/Source/portable/GCC/ARM_CM3/portmacro.h **** {
 326              		.loc 2 191 30 view .LVU92
 327              	.LBB69:
 193:Middlewares/Third_Party/FreeRTOS/Source/portable/GCC/ARM_CM3/portmacro.h **** 
 328              		.loc 2 193 1 view .LVU93
 329              		.loc 2 195 2 view .LVU94
 330              		.syntax unified
 331              	@ 195 "Middlewares/Third_Party/FreeRTOS/Source/portable/GCC/ARM_CM3/portmacro.h" 1
 332 005c 4FF05003 			mov r3, #80												
 333 0060 83F31188 		msr basepri, r3											
 334 0064 BFF36F8F 		isb														
 335 0068 BFF34F8F 		dsb														
 336              	
 337              	@ 0 "" 2
 338              	.LVL18:
 339              		.thumb
ARM GAS  /tmp/ccNSc7lp.s 			page 16


 340              		.syntax unified
 341              	.L20:
 342              		.loc 2 195 2 is_stmt 0 view .LVU95
 343              	.LBE69:
 344              	.LBE68:
 345              		.loc 1 310 3 is_stmt 1 discriminator 4 view .LVU96
 346              		.loc 1 310 3 discriminator 4 view .LVU97
 347 006c FEE7     		b	.L20
 348              	.L19:
 349              		.loc 1 310 104 view .LVU98
 311:Middlewares/Third_Party/FreeRTOS/Source/event_groups.c **** 	}
 312:Middlewares/Third_Party/FreeRTOS/Source/event_groups.c **** 	#endif
 313:Middlewares/Third_Party/FreeRTOS/Source/event_groups.c **** 
 314:Middlewares/Third_Party/FreeRTOS/Source/event_groups.c **** 	vTaskSuspendAll();
 350              		.loc 1 314 2 view .LVU99
 351 006e FFF7FEFF 		bl	vTaskSuspendAll
 352              	.LVL19:
 353              	.LBB70:
 315:Middlewares/Third_Party/FreeRTOS/Source/event_groups.c **** 	{
 316:Middlewares/Third_Party/FreeRTOS/Source/event_groups.c **** 		const EventBits_t uxCurrentEventBits = pxEventBits->uxEventBits;
 354              		.loc 1 316 3 view .LVU100
 355              		.loc 1 316 21 is_stmt 0 view .LVU101
 356 0072 3568     		ldr	r5, [r6]
 357              	.LVL20:
 317:Middlewares/Third_Party/FreeRTOS/Source/event_groups.c **** 
 318:Middlewares/Third_Party/FreeRTOS/Source/event_groups.c **** 		/* Check to see if the wait condition is already met or not. */
 319:Middlewares/Third_Party/FreeRTOS/Source/event_groups.c **** 		xWaitConditionMet = prvTestWaitCondition( uxCurrentEventBits, uxBitsToWaitFor, xWaitForAllBits );
 358              		.loc 1 319 3 is_stmt 1 view .LVU102
 359              	.LBB71:
 360              	.LBI71:
 320:Middlewares/Third_Party/FreeRTOS/Source/event_groups.c **** 
 321:Middlewares/Third_Party/FreeRTOS/Source/event_groups.c **** 		if( xWaitConditionMet != pdFALSE )
 322:Middlewares/Third_Party/FreeRTOS/Source/event_groups.c **** 		{
 323:Middlewares/Third_Party/FreeRTOS/Source/event_groups.c **** 			/* The wait condition has already been met so there is no need to
 324:Middlewares/Third_Party/FreeRTOS/Source/event_groups.c **** 			block. */
 325:Middlewares/Third_Party/FreeRTOS/Source/event_groups.c **** 			uxReturn = uxCurrentEventBits;
 326:Middlewares/Third_Party/FreeRTOS/Source/event_groups.c **** 			xTicksToWait = ( TickType_t ) 0;
 327:Middlewares/Third_Party/FreeRTOS/Source/event_groups.c **** 
 328:Middlewares/Third_Party/FreeRTOS/Source/event_groups.c **** 			/* Clear the wait bits if requested to do so. */
 329:Middlewares/Third_Party/FreeRTOS/Source/event_groups.c **** 			if( xClearOnExit != pdFALSE )
 330:Middlewares/Third_Party/FreeRTOS/Source/event_groups.c **** 			{
 331:Middlewares/Third_Party/FreeRTOS/Source/event_groups.c **** 				pxEventBits->uxEventBits &= ~uxBitsToWaitFor;
 332:Middlewares/Third_Party/FreeRTOS/Source/event_groups.c **** 			}
 333:Middlewares/Third_Party/FreeRTOS/Source/event_groups.c **** 			else
 334:Middlewares/Third_Party/FreeRTOS/Source/event_groups.c **** 			{
 335:Middlewares/Third_Party/FreeRTOS/Source/event_groups.c **** 				mtCOVERAGE_TEST_MARKER();
 336:Middlewares/Third_Party/FreeRTOS/Source/event_groups.c **** 			}
 337:Middlewares/Third_Party/FreeRTOS/Source/event_groups.c **** 		}
 338:Middlewares/Third_Party/FreeRTOS/Source/event_groups.c **** 		else if( xTicksToWait == ( TickType_t ) 0 )
 339:Middlewares/Third_Party/FreeRTOS/Source/event_groups.c **** 		{
 340:Middlewares/Third_Party/FreeRTOS/Source/event_groups.c **** 			/* The wait condition has not been met, but no block time was
 341:Middlewares/Third_Party/FreeRTOS/Source/event_groups.c **** 			specified, so just return the current value. */
 342:Middlewares/Third_Party/FreeRTOS/Source/event_groups.c **** 			uxReturn = uxCurrentEventBits;
 343:Middlewares/Third_Party/FreeRTOS/Source/event_groups.c **** 			xTimeoutOccurred = pdTRUE;
 344:Middlewares/Third_Party/FreeRTOS/Source/event_groups.c **** 		}
 345:Middlewares/Third_Party/FreeRTOS/Source/event_groups.c **** 		else
 346:Middlewares/Third_Party/FreeRTOS/Source/event_groups.c **** 		{
ARM GAS  /tmp/ccNSc7lp.s 			page 17


 347:Middlewares/Third_Party/FreeRTOS/Source/event_groups.c **** 			/* The task is going to block to wait for its required bits to be
 348:Middlewares/Third_Party/FreeRTOS/Source/event_groups.c **** 			set.  uxControlBits are used to remember the specified behaviour of
 349:Middlewares/Third_Party/FreeRTOS/Source/event_groups.c **** 			this call to xEventGroupWaitBits() - for use when the event bits
 350:Middlewares/Third_Party/FreeRTOS/Source/event_groups.c **** 			unblock the task. */
 351:Middlewares/Third_Party/FreeRTOS/Source/event_groups.c **** 			if( xClearOnExit != pdFALSE )
 352:Middlewares/Third_Party/FreeRTOS/Source/event_groups.c **** 			{
 353:Middlewares/Third_Party/FreeRTOS/Source/event_groups.c **** 				uxControlBits |= eventCLEAR_EVENTS_ON_EXIT_BIT;
 354:Middlewares/Third_Party/FreeRTOS/Source/event_groups.c **** 			}
 355:Middlewares/Third_Party/FreeRTOS/Source/event_groups.c **** 			else
 356:Middlewares/Third_Party/FreeRTOS/Source/event_groups.c **** 			{
 357:Middlewares/Third_Party/FreeRTOS/Source/event_groups.c **** 				mtCOVERAGE_TEST_MARKER();
 358:Middlewares/Third_Party/FreeRTOS/Source/event_groups.c **** 			}
 359:Middlewares/Third_Party/FreeRTOS/Source/event_groups.c **** 
 360:Middlewares/Third_Party/FreeRTOS/Source/event_groups.c **** 			if( xWaitForAllBits != pdFALSE )
 361:Middlewares/Third_Party/FreeRTOS/Source/event_groups.c **** 			{
 362:Middlewares/Third_Party/FreeRTOS/Source/event_groups.c **** 				uxControlBits |= eventWAIT_FOR_ALL_BITS;
 363:Middlewares/Third_Party/FreeRTOS/Source/event_groups.c **** 			}
 364:Middlewares/Third_Party/FreeRTOS/Source/event_groups.c **** 			else
 365:Middlewares/Third_Party/FreeRTOS/Source/event_groups.c **** 			{
 366:Middlewares/Third_Party/FreeRTOS/Source/event_groups.c **** 				mtCOVERAGE_TEST_MARKER();
 367:Middlewares/Third_Party/FreeRTOS/Source/event_groups.c **** 			}
 368:Middlewares/Third_Party/FreeRTOS/Source/event_groups.c **** 
 369:Middlewares/Third_Party/FreeRTOS/Source/event_groups.c **** 			/* Store the bits that the calling task is waiting for in the
 370:Middlewares/Third_Party/FreeRTOS/Source/event_groups.c **** 			task's event list item so the kernel knows when a match is
 371:Middlewares/Third_Party/FreeRTOS/Source/event_groups.c **** 			found.  Then enter the blocked state. */
 372:Middlewares/Third_Party/FreeRTOS/Source/event_groups.c **** 			vTaskPlaceOnUnorderedEventList( &( pxEventBits->xTasksWaitingForBits ), ( uxBitsToWaitFor | uxCo
 373:Middlewares/Third_Party/FreeRTOS/Source/event_groups.c **** 
 374:Middlewares/Third_Party/FreeRTOS/Source/event_groups.c **** 			/* This is obsolete as it will get set after the task unblocks, but
 375:Middlewares/Third_Party/FreeRTOS/Source/event_groups.c **** 			some compilers mistakenly generate a warning about the variable
 376:Middlewares/Third_Party/FreeRTOS/Source/event_groups.c **** 			being returned without being set if it is not done. */
 377:Middlewares/Third_Party/FreeRTOS/Source/event_groups.c **** 			uxReturn = 0;
 378:Middlewares/Third_Party/FreeRTOS/Source/event_groups.c **** 
 379:Middlewares/Third_Party/FreeRTOS/Source/event_groups.c **** 			traceEVENT_GROUP_WAIT_BITS_BLOCK( xEventGroup, uxBitsToWaitFor );
 380:Middlewares/Third_Party/FreeRTOS/Source/event_groups.c **** 		}
 381:Middlewares/Third_Party/FreeRTOS/Source/event_groups.c **** 	}
 382:Middlewares/Third_Party/FreeRTOS/Source/event_groups.c **** 	xAlreadyYielded = xTaskResumeAll();
 383:Middlewares/Third_Party/FreeRTOS/Source/event_groups.c **** 
 384:Middlewares/Third_Party/FreeRTOS/Source/event_groups.c **** 	if( xTicksToWait != ( TickType_t ) 0 )
 385:Middlewares/Third_Party/FreeRTOS/Source/event_groups.c **** 	{
 386:Middlewares/Third_Party/FreeRTOS/Source/event_groups.c **** 		if( xAlreadyYielded == pdFALSE )
 387:Middlewares/Third_Party/FreeRTOS/Source/event_groups.c **** 		{
 388:Middlewares/Third_Party/FreeRTOS/Source/event_groups.c **** 			portYIELD_WITHIN_API();
 389:Middlewares/Third_Party/FreeRTOS/Source/event_groups.c **** 		}
 390:Middlewares/Third_Party/FreeRTOS/Source/event_groups.c **** 		else
 391:Middlewares/Third_Party/FreeRTOS/Source/event_groups.c **** 		{
 392:Middlewares/Third_Party/FreeRTOS/Source/event_groups.c **** 			mtCOVERAGE_TEST_MARKER();
 393:Middlewares/Third_Party/FreeRTOS/Source/event_groups.c **** 		}
 394:Middlewares/Third_Party/FreeRTOS/Source/event_groups.c **** 
 395:Middlewares/Third_Party/FreeRTOS/Source/event_groups.c **** 		/* The task blocked to wait for its required bits to be set - at this
 396:Middlewares/Third_Party/FreeRTOS/Source/event_groups.c **** 		point either the required bits were set or the block time expired.  If
 397:Middlewares/Third_Party/FreeRTOS/Source/event_groups.c **** 		the required bits were set they will have been stored in the task's
 398:Middlewares/Third_Party/FreeRTOS/Source/event_groups.c **** 		event list item, and they should now be retrieved then cleared. */
 399:Middlewares/Third_Party/FreeRTOS/Source/event_groups.c **** 		uxReturn = uxTaskResetEventItemValue();
 400:Middlewares/Third_Party/FreeRTOS/Source/event_groups.c **** 
 401:Middlewares/Third_Party/FreeRTOS/Source/event_groups.c **** 		if( ( uxReturn & eventUNBLOCKED_DUE_TO_BIT_SET ) == ( EventBits_t ) 0 )
 402:Middlewares/Third_Party/FreeRTOS/Source/event_groups.c **** 		{
 403:Middlewares/Third_Party/FreeRTOS/Source/event_groups.c **** 			taskENTER_CRITICAL();
ARM GAS  /tmp/ccNSc7lp.s 			page 18


 404:Middlewares/Third_Party/FreeRTOS/Source/event_groups.c **** 			{
 405:Middlewares/Third_Party/FreeRTOS/Source/event_groups.c **** 				/* The task timed out, just return the current event bit value. */
 406:Middlewares/Third_Party/FreeRTOS/Source/event_groups.c **** 				uxReturn = pxEventBits->uxEventBits;
 407:Middlewares/Third_Party/FreeRTOS/Source/event_groups.c **** 
 408:Middlewares/Third_Party/FreeRTOS/Source/event_groups.c **** 				/* It is possible that the event bits were updated between this
 409:Middlewares/Third_Party/FreeRTOS/Source/event_groups.c **** 				task leaving the Blocked state and running again. */
 410:Middlewares/Third_Party/FreeRTOS/Source/event_groups.c **** 				if( prvTestWaitCondition( uxReturn, uxBitsToWaitFor, xWaitForAllBits ) != pdFALSE )
 411:Middlewares/Third_Party/FreeRTOS/Source/event_groups.c **** 				{
 412:Middlewares/Third_Party/FreeRTOS/Source/event_groups.c **** 					if( xClearOnExit != pdFALSE )
 413:Middlewares/Third_Party/FreeRTOS/Source/event_groups.c **** 					{
 414:Middlewares/Third_Party/FreeRTOS/Source/event_groups.c **** 						pxEventBits->uxEventBits &= ~uxBitsToWaitFor;
 415:Middlewares/Third_Party/FreeRTOS/Source/event_groups.c **** 					}
 416:Middlewares/Third_Party/FreeRTOS/Source/event_groups.c **** 					else
 417:Middlewares/Third_Party/FreeRTOS/Source/event_groups.c **** 					{
 418:Middlewares/Third_Party/FreeRTOS/Source/event_groups.c **** 						mtCOVERAGE_TEST_MARKER();
 419:Middlewares/Third_Party/FreeRTOS/Source/event_groups.c **** 					}
 420:Middlewares/Third_Party/FreeRTOS/Source/event_groups.c **** 				}
 421:Middlewares/Third_Party/FreeRTOS/Source/event_groups.c **** 				else
 422:Middlewares/Third_Party/FreeRTOS/Source/event_groups.c **** 				{
 423:Middlewares/Third_Party/FreeRTOS/Source/event_groups.c **** 					mtCOVERAGE_TEST_MARKER();
 424:Middlewares/Third_Party/FreeRTOS/Source/event_groups.c **** 				}
 425:Middlewares/Third_Party/FreeRTOS/Source/event_groups.c **** 				xTimeoutOccurred = pdTRUE;
 426:Middlewares/Third_Party/FreeRTOS/Source/event_groups.c **** 			}
 427:Middlewares/Third_Party/FreeRTOS/Source/event_groups.c **** 			taskEXIT_CRITICAL();
 428:Middlewares/Third_Party/FreeRTOS/Source/event_groups.c **** 		}
 429:Middlewares/Third_Party/FreeRTOS/Source/event_groups.c **** 		else
 430:Middlewares/Third_Party/FreeRTOS/Source/event_groups.c **** 		{
 431:Middlewares/Third_Party/FreeRTOS/Source/event_groups.c **** 			/* The task unblocked because the bits were set. */
 432:Middlewares/Third_Party/FreeRTOS/Source/event_groups.c **** 		}
 433:Middlewares/Third_Party/FreeRTOS/Source/event_groups.c **** 
 434:Middlewares/Third_Party/FreeRTOS/Source/event_groups.c **** 		/* The task blocked so control bits may have been set. */
 435:Middlewares/Third_Party/FreeRTOS/Source/event_groups.c **** 		uxReturn &= ~eventEVENT_BITS_CONTROL_BYTES;
 436:Middlewares/Third_Party/FreeRTOS/Source/event_groups.c **** 	}
 437:Middlewares/Third_Party/FreeRTOS/Source/event_groups.c **** 	traceEVENT_GROUP_WAIT_BITS_END( xEventGroup, uxBitsToWaitFor, xTimeoutOccurred );
 438:Middlewares/Third_Party/FreeRTOS/Source/event_groups.c **** 
 439:Middlewares/Third_Party/FreeRTOS/Source/event_groups.c **** 	/* Prevent compiler warnings when trace macros are not used. */
 440:Middlewares/Third_Party/FreeRTOS/Source/event_groups.c **** 	( void ) xTimeoutOccurred;
 441:Middlewares/Third_Party/FreeRTOS/Source/event_groups.c **** 
 442:Middlewares/Third_Party/FreeRTOS/Source/event_groups.c **** 	return uxReturn;
 443:Middlewares/Third_Party/FreeRTOS/Source/event_groups.c **** }
 444:Middlewares/Third_Party/FreeRTOS/Source/event_groups.c **** /*-----------------------------------------------------------*/
 445:Middlewares/Third_Party/FreeRTOS/Source/event_groups.c **** 
 446:Middlewares/Third_Party/FreeRTOS/Source/event_groups.c **** EventBits_t xEventGroupClearBits( EventGroupHandle_t xEventGroup, const EventBits_t uxBitsToClear )
 447:Middlewares/Third_Party/FreeRTOS/Source/event_groups.c **** {
 448:Middlewares/Third_Party/FreeRTOS/Source/event_groups.c **** EventGroup_t *pxEventBits = ( EventGroup_t * ) xEventGroup;
 449:Middlewares/Third_Party/FreeRTOS/Source/event_groups.c **** EventBits_t uxReturn;
 450:Middlewares/Third_Party/FreeRTOS/Source/event_groups.c **** 
 451:Middlewares/Third_Party/FreeRTOS/Source/event_groups.c **** 	/* Check the user is not attempting to clear the bits used by the kernel
 452:Middlewares/Third_Party/FreeRTOS/Source/event_groups.c **** 	itself. */
 453:Middlewares/Third_Party/FreeRTOS/Source/event_groups.c **** 	configASSERT( xEventGroup );
 454:Middlewares/Third_Party/FreeRTOS/Source/event_groups.c **** 	configASSERT( ( uxBitsToClear & eventEVENT_BITS_CONTROL_BYTES ) == 0 );
 455:Middlewares/Third_Party/FreeRTOS/Source/event_groups.c **** 
 456:Middlewares/Third_Party/FreeRTOS/Source/event_groups.c **** 	taskENTER_CRITICAL();
 457:Middlewares/Third_Party/FreeRTOS/Source/event_groups.c **** 	{
 458:Middlewares/Third_Party/FreeRTOS/Source/event_groups.c **** 		traceEVENT_GROUP_CLEAR_BITS( xEventGroup, uxBitsToClear );
 459:Middlewares/Third_Party/FreeRTOS/Source/event_groups.c **** 
 460:Middlewares/Third_Party/FreeRTOS/Source/event_groups.c **** 		/* The value returned is the event group value prior to the bits being
ARM GAS  /tmp/ccNSc7lp.s 			page 19


 461:Middlewares/Third_Party/FreeRTOS/Source/event_groups.c **** 		cleared. */
 462:Middlewares/Third_Party/FreeRTOS/Source/event_groups.c **** 		uxReturn = pxEventBits->uxEventBits;
 463:Middlewares/Third_Party/FreeRTOS/Source/event_groups.c **** 
 464:Middlewares/Third_Party/FreeRTOS/Source/event_groups.c **** 		/* Clear the bits. */
 465:Middlewares/Third_Party/FreeRTOS/Source/event_groups.c **** 		pxEventBits->uxEventBits &= ~uxBitsToClear;
 466:Middlewares/Third_Party/FreeRTOS/Source/event_groups.c **** 	}
 467:Middlewares/Third_Party/FreeRTOS/Source/event_groups.c **** 	taskEXIT_CRITICAL();
 468:Middlewares/Third_Party/FreeRTOS/Source/event_groups.c **** 
 469:Middlewares/Third_Party/FreeRTOS/Source/event_groups.c **** 	return uxReturn;
 470:Middlewares/Third_Party/FreeRTOS/Source/event_groups.c **** }
 471:Middlewares/Third_Party/FreeRTOS/Source/event_groups.c **** /*-----------------------------------------------------------*/
 472:Middlewares/Third_Party/FreeRTOS/Source/event_groups.c **** 
 473:Middlewares/Third_Party/FreeRTOS/Source/event_groups.c **** #if ( ( configUSE_TRACE_FACILITY == 1 ) && ( INCLUDE_xTimerPendFunctionCall == 1 ) && ( configUSE_T
 474:Middlewares/Third_Party/FreeRTOS/Source/event_groups.c **** 
 475:Middlewares/Third_Party/FreeRTOS/Source/event_groups.c **** 	BaseType_t xEventGroupClearBitsFromISR( EventGroupHandle_t xEventGroup, const EventBits_t uxBitsTo
 476:Middlewares/Third_Party/FreeRTOS/Source/event_groups.c **** 	{
 477:Middlewares/Third_Party/FreeRTOS/Source/event_groups.c **** 		BaseType_t xReturn;
 478:Middlewares/Third_Party/FreeRTOS/Source/event_groups.c **** 
 479:Middlewares/Third_Party/FreeRTOS/Source/event_groups.c **** 		traceEVENT_GROUP_CLEAR_BITS_FROM_ISR( xEventGroup, uxBitsToClear );
 480:Middlewares/Third_Party/FreeRTOS/Source/event_groups.c **** 		xReturn = xTimerPendFunctionCallFromISR( vEventGroupClearBitsCallback, ( void * ) xEventGroup, ( 
 481:Middlewares/Third_Party/FreeRTOS/Source/event_groups.c **** 
 482:Middlewares/Third_Party/FreeRTOS/Source/event_groups.c **** 		return xReturn;
 483:Middlewares/Third_Party/FreeRTOS/Source/event_groups.c **** 	}
 484:Middlewares/Third_Party/FreeRTOS/Source/event_groups.c **** 
 485:Middlewares/Third_Party/FreeRTOS/Source/event_groups.c **** #endif
 486:Middlewares/Third_Party/FreeRTOS/Source/event_groups.c **** /*-----------------------------------------------------------*/
 487:Middlewares/Third_Party/FreeRTOS/Source/event_groups.c **** 
 488:Middlewares/Third_Party/FreeRTOS/Source/event_groups.c **** EventBits_t xEventGroupGetBitsFromISR( EventGroupHandle_t xEventGroup )
 489:Middlewares/Third_Party/FreeRTOS/Source/event_groups.c **** {
 490:Middlewares/Third_Party/FreeRTOS/Source/event_groups.c **** UBaseType_t uxSavedInterruptStatus;
 491:Middlewares/Third_Party/FreeRTOS/Source/event_groups.c **** EventGroup_t *pxEventBits = ( EventGroup_t * ) xEventGroup;
 492:Middlewares/Third_Party/FreeRTOS/Source/event_groups.c **** EventBits_t uxReturn;
 493:Middlewares/Third_Party/FreeRTOS/Source/event_groups.c **** 
 494:Middlewares/Third_Party/FreeRTOS/Source/event_groups.c **** 	uxSavedInterruptStatus = portSET_INTERRUPT_MASK_FROM_ISR();
 495:Middlewares/Third_Party/FreeRTOS/Source/event_groups.c **** 	{
 496:Middlewares/Third_Party/FreeRTOS/Source/event_groups.c **** 		uxReturn = pxEventBits->uxEventBits;
 497:Middlewares/Third_Party/FreeRTOS/Source/event_groups.c **** 	}
 498:Middlewares/Third_Party/FreeRTOS/Source/event_groups.c **** 	portCLEAR_INTERRUPT_MASK_FROM_ISR( uxSavedInterruptStatus );
 499:Middlewares/Third_Party/FreeRTOS/Source/event_groups.c **** 
 500:Middlewares/Third_Party/FreeRTOS/Source/event_groups.c **** 	return uxReturn;
 501:Middlewares/Third_Party/FreeRTOS/Source/event_groups.c **** }
 502:Middlewares/Third_Party/FreeRTOS/Source/event_groups.c **** /*-----------------------------------------------------------*/
 503:Middlewares/Third_Party/FreeRTOS/Source/event_groups.c **** 
 504:Middlewares/Third_Party/FreeRTOS/Source/event_groups.c **** EventBits_t xEventGroupSetBits( EventGroupHandle_t xEventGroup, const EventBits_t uxBitsToSet )
 505:Middlewares/Third_Party/FreeRTOS/Source/event_groups.c **** {
 506:Middlewares/Third_Party/FreeRTOS/Source/event_groups.c **** ListItem_t *pxListItem, *pxNext;
 507:Middlewares/Third_Party/FreeRTOS/Source/event_groups.c **** ListItem_t const *pxListEnd;
 508:Middlewares/Third_Party/FreeRTOS/Source/event_groups.c **** List_t *pxList;
 509:Middlewares/Third_Party/FreeRTOS/Source/event_groups.c **** EventBits_t uxBitsToClear = 0, uxBitsWaitedFor, uxControlBits;
 510:Middlewares/Third_Party/FreeRTOS/Source/event_groups.c **** EventGroup_t *pxEventBits = ( EventGroup_t * ) xEventGroup;
 511:Middlewares/Third_Party/FreeRTOS/Source/event_groups.c **** BaseType_t xMatchFound = pdFALSE;
 512:Middlewares/Third_Party/FreeRTOS/Source/event_groups.c **** 
 513:Middlewares/Third_Party/FreeRTOS/Source/event_groups.c **** 	/* Check the user is not attempting to set the bits used by the kernel
 514:Middlewares/Third_Party/FreeRTOS/Source/event_groups.c **** 	itself. */
 515:Middlewares/Third_Party/FreeRTOS/Source/event_groups.c **** 	configASSERT( xEventGroup );
 516:Middlewares/Third_Party/FreeRTOS/Source/event_groups.c **** 	configASSERT( ( uxBitsToSet & eventEVENT_BITS_CONTROL_BYTES ) == 0 );
 517:Middlewares/Third_Party/FreeRTOS/Source/event_groups.c **** 
ARM GAS  /tmp/ccNSc7lp.s 			page 20


 518:Middlewares/Third_Party/FreeRTOS/Source/event_groups.c **** 	pxList = &( pxEventBits->xTasksWaitingForBits );
 519:Middlewares/Third_Party/FreeRTOS/Source/event_groups.c **** 	pxListEnd = listGET_END_MARKER( pxList ); /*lint !e826 !e740 The mini list structure is used as th
 520:Middlewares/Third_Party/FreeRTOS/Source/event_groups.c **** 	vTaskSuspendAll();
 521:Middlewares/Third_Party/FreeRTOS/Source/event_groups.c **** 	{
 522:Middlewares/Third_Party/FreeRTOS/Source/event_groups.c **** 		traceEVENT_GROUP_SET_BITS( xEventGroup, uxBitsToSet );
 523:Middlewares/Third_Party/FreeRTOS/Source/event_groups.c **** 
 524:Middlewares/Third_Party/FreeRTOS/Source/event_groups.c **** 		pxListItem = listGET_HEAD_ENTRY( pxList );
 525:Middlewares/Third_Party/FreeRTOS/Source/event_groups.c **** 
 526:Middlewares/Third_Party/FreeRTOS/Source/event_groups.c **** 		/* Set the bits. */
 527:Middlewares/Third_Party/FreeRTOS/Source/event_groups.c **** 		pxEventBits->uxEventBits |= uxBitsToSet;
 528:Middlewares/Third_Party/FreeRTOS/Source/event_groups.c **** 
 529:Middlewares/Third_Party/FreeRTOS/Source/event_groups.c **** 		/* See if the new bit value should unblock any tasks. */
 530:Middlewares/Third_Party/FreeRTOS/Source/event_groups.c **** 		while( pxListItem != pxListEnd )
 531:Middlewares/Third_Party/FreeRTOS/Source/event_groups.c **** 		{
 532:Middlewares/Third_Party/FreeRTOS/Source/event_groups.c **** 			pxNext = listGET_NEXT( pxListItem );
 533:Middlewares/Third_Party/FreeRTOS/Source/event_groups.c **** 			uxBitsWaitedFor = listGET_LIST_ITEM_VALUE( pxListItem );
 534:Middlewares/Third_Party/FreeRTOS/Source/event_groups.c **** 			xMatchFound = pdFALSE;
 535:Middlewares/Third_Party/FreeRTOS/Source/event_groups.c **** 
 536:Middlewares/Third_Party/FreeRTOS/Source/event_groups.c **** 			/* Split the bits waited for from the control bits. */
 537:Middlewares/Third_Party/FreeRTOS/Source/event_groups.c **** 			uxControlBits = uxBitsWaitedFor & eventEVENT_BITS_CONTROL_BYTES;
 538:Middlewares/Third_Party/FreeRTOS/Source/event_groups.c **** 			uxBitsWaitedFor &= ~eventEVENT_BITS_CONTROL_BYTES;
 539:Middlewares/Third_Party/FreeRTOS/Source/event_groups.c **** 
 540:Middlewares/Third_Party/FreeRTOS/Source/event_groups.c **** 			if( ( uxControlBits & eventWAIT_FOR_ALL_BITS ) == ( EventBits_t ) 0 )
 541:Middlewares/Third_Party/FreeRTOS/Source/event_groups.c **** 			{
 542:Middlewares/Third_Party/FreeRTOS/Source/event_groups.c **** 				/* Just looking for single bit being set. */
 543:Middlewares/Third_Party/FreeRTOS/Source/event_groups.c **** 				if( ( uxBitsWaitedFor & pxEventBits->uxEventBits ) != ( EventBits_t ) 0 )
 544:Middlewares/Third_Party/FreeRTOS/Source/event_groups.c **** 				{
 545:Middlewares/Third_Party/FreeRTOS/Source/event_groups.c **** 					xMatchFound = pdTRUE;
 546:Middlewares/Third_Party/FreeRTOS/Source/event_groups.c **** 				}
 547:Middlewares/Third_Party/FreeRTOS/Source/event_groups.c **** 				else
 548:Middlewares/Third_Party/FreeRTOS/Source/event_groups.c **** 				{
 549:Middlewares/Third_Party/FreeRTOS/Source/event_groups.c **** 					mtCOVERAGE_TEST_MARKER();
 550:Middlewares/Third_Party/FreeRTOS/Source/event_groups.c **** 				}
 551:Middlewares/Third_Party/FreeRTOS/Source/event_groups.c **** 			}
 552:Middlewares/Third_Party/FreeRTOS/Source/event_groups.c **** 			else if( ( uxBitsWaitedFor & pxEventBits->uxEventBits ) == uxBitsWaitedFor )
 553:Middlewares/Third_Party/FreeRTOS/Source/event_groups.c **** 			{
 554:Middlewares/Third_Party/FreeRTOS/Source/event_groups.c **** 				/* All bits are set. */
 555:Middlewares/Third_Party/FreeRTOS/Source/event_groups.c **** 				xMatchFound = pdTRUE;
 556:Middlewares/Third_Party/FreeRTOS/Source/event_groups.c **** 			}
 557:Middlewares/Third_Party/FreeRTOS/Source/event_groups.c **** 			else
 558:Middlewares/Third_Party/FreeRTOS/Source/event_groups.c **** 			{
 559:Middlewares/Third_Party/FreeRTOS/Source/event_groups.c **** 				/* Need all bits to be set, but not all the bits were set. */
 560:Middlewares/Third_Party/FreeRTOS/Source/event_groups.c **** 			}
 561:Middlewares/Third_Party/FreeRTOS/Source/event_groups.c **** 
 562:Middlewares/Third_Party/FreeRTOS/Source/event_groups.c **** 			if( xMatchFound != pdFALSE )
 563:Middlewares/Third_Party/FreeRTOS/Source/event_groups.c **** 			{
 564:Middlewares/Third_Party/FreeRTOS/Source/event_groups.c **** 				/* The bits match.  Should the bits be cleared on exit? */
 565:Middlewares/Third_Party/FreeRTOS/Source/event_groups.c **** 				if( ( uxControlBits & eventCLEAR_EVENTS_ON_EXIT_BIT ) != ( EventBits_t ) 0 )
 566:Middlewares/Third_Party/FreeRTOS/Source/event_groups.c **** 				{
 567:Middlewares/Third_Party/FreeRTOS/Source/event_groups.c **** 					uxBitsToClear |= uxBitsWaitedFor;
 568:Middlewares/Third_Party/FreeRTOS/Source/event_groups.c **** 				}
 569:Middlewares/Third_Party/FreeRTOS/Source/event_groups.c **** 				else
 570:Middlewares/Third_Party/FreeRTOS/Source/event_groups.c **** 				{
 571:Middlewares/Third_Party/FreeRTOS/Source/event_groups.c **** 					mtCOVERAGE_TEST_MARKER();
 572:Middlewares/Third_Party/FreeRTOS/Source/event_groups.c **** 				}
 573:Middlewares/Third_Party/FreeRTOS/Source/event_groups.c **** 
 574:Middlewares/Third_Party/FreeRTOS/Source/event_groups.c **** 				/* Store the actual event flag value in the task's event list
ARM GAS  /tmp/ccNSc7lp.s 			page 21


 575:Middlewares/Third_Party/FreeRTOS/Source/event_groups.c **** 				item before removing the task from the event list.  The
 576:Middlewares/Third_Party/FreeRTOS/Source/event_groups.c **** 				eventUNBLOCKED_DUE_TO_BIT_SET bit is set so the task knows
 577:Middlewares/Third_Party/FreeRTOS/Source/event_groups.c **** 				that is was unblocked due to its required bits matching, rather
 578:Middlewares/Third_Party/FreeRTOS/Source/event_groups.c **** 				than because it timed out. */
 579:Middlewares/Third_Party/FreeRTOS/Source/event_groups.c **** 				vTaskRemoveFromUnorderedEventList( pxListItem, pxEventBits->uxEventBits | eventUNBLOCKED_DUE_TO
 580:Middlewares/Third_Party/FreeRTOS/Source/event_groups.c **** 			}
 581:Middlewares/Third_Party/FreeRTOS/Source/event_groups.c **** 
 582:Middlewares/Third_Party/FreeRTOS/Source/event_groups.c **** 			/* Move onto the next list item.  Note pxListItem->pxNext is not
 583:Middlewares/Third_Party/FreeRTOS/Source/event_groups.c **** 			used here as the list item may have been removed from the event list
 584:Middlewares/Third_Party/FreeRTOS/Source/event_groups.c **** 			and inserted into the ready/pending reading list. */
 585:Middlewares/Third_Party/FreeRTOS/Source/event_groups.c **** 			pxListItem = pxNext;
 586:Middlewares/Third_Party/FreeRTOS/Source/event_groups.c **** 		}
 587:Middlewares/Third_Party/FreeRTOS/Source/event_groups.c **** 
 588:Middlewares/Third_Party/FreeRTOS/Source/event_groups.c **** 		/* Clear any bits that matched when the eventCLEAR_EVENTS_ON_EXIT_BIT
 589:Middlewares/Third_Party/FreeRTOS/Source/event_groups.c **** 		bit was set in the control word. */
 590:Middlewares/Third_Party/FreeRTOS/Source/event_groups.c **** 		pxEventBits->uxEventBits &= ~uxBitsToClear;
 591:Middlewares/Third_Party/FreeRTOS/Source/event_groups.c **** 	}
 592:Middlewares/Third_Party/FreeRTOS/Source/event_groups.c **** 	( void ) xTaskResumeAll();
 593:Middlewares/Third_Party/FreeRTOS/Source/event_groups.c **** 
 594:Middlewares/Third_Party/FreeRTOS/Source/event_groups.c **** 	return pxEventBits->uxEventBits;
 595:Middlewares/Third_Party/FreeRTOS/Source/event_groups.c **** }
 596:Middlewares/Third_Party/FreeRTOS/Source/event_groups.c **** /*-----------------------------------------------------------*/
 597:Middlewares/Third_Party/FreeRTOS/Source/event_groups.c **** 
 598:Middlewares/Third_Party/FreeRTOS/Source/event_groups.c **** void vEventGroupDelete( EventGroupHandle_t xEventGroup )
 599:Middlewares/Third_Party/FreeRTOS/Source/event_groups.c **** {
 600:Middlewares/Third_Party/FreeRTOS/Source/event_groups.c **** EventGroup_t *pxEventBits = ( EventGroup_t * ) xEventGroup;
 601:Middlewares/Third_Party/FreeRTOS/Source/event_groups.c **** const List_t *pxTasksWaitingForBits = &( pxEventBits->xTasksWaitingForBits );
 602:Middlewares/Third_Party/FreeRTOS/Source/event_groups.c **** 
 603:Middlewares/Third_Party/FreeRTOS/Source/event_groups.c **** 	vTaskSuspendAll();
 604:Middlewares/Third_Party/FreeRTOS/Source/event_groups.c **** 	{
 605:Middlewares/Third_Party/FreeRTOS/Source/event_groups.c **** 		traceEVENT_GROUP_DELETE( xEventGroup );
 606:Middlewares/Third_Party/FreeRTOS/Source/event_groups.c **** 
 607:Middlewares/Third_Party/FreeRTOS/Source/event_groups.c **** 		while( listCURRENT_LIST_LENGTH( pxTasksWaitingForBits ) > ( UBaseType_t ) 0 )
 608:Middlewares/Third_Party/FreeRTOS/Source/event_groups.c **** 		{
 609:Middlewares/Third_Party/FreeRTOS/Source/event_groups.c **** 			/* Unblock the task, returning 0 as the event list is being deleted
 610:Middlewares/Third_Party/FreeRTOS/Source/event_groups.c **** 			and cannot therefore have any bits set. */
 611:Middlewares/Third_Party/FreeRTOS/Source/event_groups.c **** 			configASSERT( pxTasksWaitingForBits->xListEnd.pxNext != ( const ListItem_t * ) &( pxTasksWaiting
 612:Middlewares/Third_Party/FreeRTOS/Source/event_groups.c **** 			vTaskRemoveFromUnorderedEventList( pxTasksWaitingForBits->xListEnd.pxNext, eventUNBLOCKED_DUE_TO
 613:Middlewares/Third_Party/FreeRTOS/Source/event_groups.c **** 		}
 614:Middlewares/Third_Party/FreeRTOS/Source/event_groups.c **** 
 615:Middlewares/Third_Party/FreeRTOS/Source/event_groups.c **** 		#if( ( configSUPPORT_DYNAMIC_ALLOCATION == 1 ) && ( configSUPPORT_STATIC_ALLOCATION == 0 ) )
 616:Middlewares/Third_Party/FreeRTOS/Source/event_groups.c **** 		{
 617:Middlewares/Third_Party/FreeRTOS/Source/event_groups.c **** 			/* The event group can only have been allocated dynamically - free
 618:Middlewares/Third_Party/FreeRTOS/Source/event_groups.c **** 			it again. */
 619:Middlewares/Third_Party/FreeRTOS/Source/event_groups.c **** 			vPortFree( pxEventBits );
 620:Middlewares/Third_Party/FreeRTOS/Source/event_groups.c **** 		}
 621:Middlewares/Third_Party/FreeRTOS/Source/event_groups.c **** 		#elif( ( configSUPPORT_DYNAMIC_ALLOCATION == 1 ) && ( configSUPPORT_STATIC_ALLOCATION == 1 ) )
 622:Middlewares/Third_Party/FreeRTOS/Source/event_groups.c **** 		{
 623:Middlewares/Third_Party/FreeRTOS/Source/event_groups.c **** 			/* The event group could have been allocated statically or
 624:Middlewares/Third_Party/FreeRTOS/Source/event_groups.c **** 			dynamically, so check before attempting to free the memory. */
 625:Middlewares/Third_Party/FreeRTOS/Source/event_groups.c **** 			if( pxEventBits->ucStaticallyAllocated == ( uint8_t ) pdFALSE )
 626:Middlewares/Third_Party/FreeRTOS/Source/event_groups.c **** 			{
 627:Middlewares/Third_Party/FreeRTOS/Source/event_groups.c **** 				vPortFree( pxEventBits );
 628:Middlewares/Third_Party/FreeRTOS/Source/event_groups.c **** 			}
 629:Middlewares/Third_Party/FreeRTOS/Source/event_groups.c **** 			else
 630:Middlewares/Third_Party/FreeRTOS/Source/event_groups.c **** 			{
 631:Middlewares/Third_Party/FreeRTOS/Source/event_groups.c **** 				mtCOVERAGE_TEST_MARKER();
ARM GAS  /tmp/ccNSc7lp.s 			page 22


 632:Middlewares/Third_Party/FreeRTOS/Source/event_groups.c **** 			}
 633:Middlewares/Third_Party/FreeRTOS/Source/event_groups.c **** 		}
 634:Middlewares/Third_Party/FreeRTOS/Source/event_groups.c **** 		#endif /* configSUPPORT_DYNAMIC_ALLOCATION */
 635:Middlewares/Third_Party/FreeRTOS/Source/event_groups.c **** 	}
 636:Middlewares/Third_Party/FreeRTOS/Source/event_groups.c **** 	( void ) xTaskResumeAll();
 637:Middlewares/Third_Party/FreeRTOS/Source/event_groups.c **** }
 638:Middlewares/Third_Party/FreeRTOS/Source/event_groups.c **** /*-----------------------------------------------------------*/
 639:Middlewares/Third_Party/FreeRTOS/Source/event_groups.c **** 
 640:Middlewares/Third_Party/FreeRTOS/Source/event_groups.c **** /* For internal use only - execute a 'set bits' command that was pended from
 641:Middlewares/Third_Party/FreeRTOS/Source/event_groups.c **** an interrupt. */
 642:Middlewares/Third_Party/FreeRTOS/Source/event_groups.c **** void vEventGroupSetBitsCallback( void *pvEventGroup, const uint32_t ulBitsToSet )
 643:Middlewares/Third_Party/FreeRTOS/Source/event_groups.c **** {
 644:Middlewares/Third_Party/FreeRTOS/Source/event_groups.c **** 	( void ) xEventGroupSetBits( pvEventGroup, ( EventBits_t ) ulBitsToSet );
 645:Middlewares/Third_Party/FreeRTOS/Source/event_groups.c **** }
 646:Middlewares/Third_Party/FreeRTOS/Source/event_groups.c **** /*-----------------------------------------------------------*/
 647:Middlewares/Third_Party/FreeRTOS/Source/event_groups.c **** 
 648:Middlewares/Third_Party/FreeRTOS/Source/event_groups.c **** /* For internal use only - execute a 'clear bits' command that was pended from
 649:Middlewares/Third_Party/FreeRTOS/Source/event_groups.c **** an interrupt. */
 650:Middlewares/Third_Party/FreeRTOS/Source/event_groups.c **** void vEventGroupClearBitsCallback( void *pvEventGroup, const uint32_t ulBitsToClear )
 651:Middlewares/Third_Party/FreeRTOS/Source/event_groups.c **** {
 652:Middlewares/Third_Party/FreeRTOS/Source/event_groups.c **** 	( void ) xEventGroupClearBits( pvEventGroup, ( EventBits_t ) ulBitsToClear );
 653:Middlewares/Third_Party/FreeRTOS/Source/event_groups.c **** }
 654:Middlewares/Third_Party/FreeRTOS/Source/event_groups.c **** /*-----------------------------------------------------------*/
 655:Middlewares/Third_Party/FreeRTOS/Source/event_groups.c **** 
 656:Middlewares/Third_Party/FreeRTOS/Source/event_groups.c **** static BaseType_t prvTestWaitCondition( const EventBits_t uxCurrentEventBits, const EventBits_t uxB
 361              		.loc 1 656 19 view .LVU103
 362              	.LBB72:
 657:Middlewares/Third_Party/FreeRTOS/Source/event_groups.c **** {
 658:Middlewares/Third_Party/FreeRTOS/Source/event_groups.c **** BaseType_t xWaitConditionMet = pdFALSE;
 363              		.loc 1 658 1 view .LVU104
 659:Middlewares/Third_Party/FreeRTOS/Source/event_groups.c **** 
 660:Middlewares/Third_Party/FreeRTOS/Source/event_groups.c **** 	if( xWaitForAllBits == pdFALSE )
 364              		.loc 1 660 2 view .LVU105
 365 0074 04EA0503 		and	r3, r4, r5
 366              		.loc 1 660 4 is_stmt 0 view .LVU106
 367 0078 B8F1000F 		cmp	r8, #0
 368 007c 32D0     		beq	.L21
 661:Middlewares/Third_Party/FreeRTOS/Source/event_groups.c **** 	{
 662:Middlewares/Third_Party/FreeRTOS/Source/event_groups.c **** 		/* Task only has to wait for one bit within uxBitsToWaitFor to be
 663:Middlewares/Third_Party/FreeRTOS/Source/event_groups.c **** 		set.  Is one already set? */
 664:Middlewares/Third_Party/FreeRTOS/Source/event_groups.c **** 		if( ( uxCurrentEventBits & uxBitsToWaitFor ) != ( EventBits_t ) 0 )
 665:Middlewares/Third_Party/FreeRTOS/Source/event_groups.c **** 		{
 666:Middlewares/Third_Party/FreeRTOS/Source/event_groups.c **** 			xWaitConditionMet = pdTRUE;
 667:Middlewares/Third_Party/FreeRTOS/Source/event_groups.c **** 		}
 668:Middlewares/Third_Party/FreeRTOS/Source/event_groups.c **** 		else
 669:Middlewares/Third_Party/FreeRTOS/Source/event_groups.c **** 		{
 670:Middlewares/Third_Party/FreeRTOS/Source/event_groups.c **** 			mtCOVERAGE_TEST_MARKER();
 671:Middlewares/Third_Party/FreeRTOS/Source/event_groups.c **** 		}
 672:Middlewares/Third_Party/FreeRTOS/Source/event_groups.c **** 	}
 673:Middlewares/Third_Party/FreeRTOS/Source/event_groups.c **** 	else
 674:Middlewares/Third_Party/FreeRTOS/Source/event_groups.c **** 	{
 675:Middlewares/Third_Party/FreeRTOS/Source/event_groups.c **** 		/* Task has to wait for all the bits in uxBitsToWaitFor to be set.
 676:Middlewares/Third_Party/FreeRTOS/Source/event_groups.c **** 		Are they set already? */
 677:Middlewares/Third_Party/FreeRTOS/Source/event_groups.c **** 		if( ( uxCurrentEventBits & uxBitsToWaitFor ) == uxBitsToWaitFor )
 369              		.loc 1 677 3 is_stmt 1 view .LVU107
 370              		.loc 1 677 5 is_stmt 0 view .LVU108
 371 007e 9C42     		cmp	r4, r3
ARM GAS  /tmp/ccNSc7lp.s 			page 23


 372 0080 32D1     		bne	.L23
 373              	.L22:
 374              	.LVL21:
 678:Middlewares/Third_Party/FreeRTOS/Source/event_groups.c **** 		{
 679:Middlewares/Third_Party/FreeRTOS/Source/event_groups.c **** 			xWaitConditionMet = pdTRUE;
 680:Middlewares/Third_Party/FreeRTOS/Source/event_groups.c **** 		}
 681:Middlewares/Third_Party/FreeRTOS/Source/event_groups.c **** 		else
 682:Middlewares/Third_Party/FreeRTOS/Source/event_groups.c **** 		{
 683:Middlewares/Third_Party/FreeRTOS/Source/event_groups.c **** 			mtCOVERAGE_TEST_MARKER();
 375              		.loc 1 683 28 is_stmt 1 view .LVU109
 684:Middlewares/Third_Party/FreeRTOS/Source/event_groups.c **** 		}
 685:Middlewares/Third_Party/FreeRTOS/Source/event_groups.c **** 	}
 686:Middlewares/Third_Party/FreeRTOS/Source/event_groups.c **** 
 687:Middlewares/Third_Party/FreeRTOS/Source/event_groups.c **** 	return xWaitConditionMet;
 376              		.loc 1 687 2 view .LVU110
 377              		.loc 1 687 2 is_stmt 0 view .LVU111
 378              	.LBE72:
 379              	.LBE71:
 321:Middlewares/Third_Party/FreeRTOS/Source/event_groups.c **** 		{
 380              		.loc 1 321 3 is_stmt 1 view .LVU112
 325:Middlewares/Third_Party/FreeRTOS/Source/event_groups.c **** 			xTicksToWait = ( TickType_t ) 0;
 381              		.loc 1 325 4 view .LVU113
 326:Middlewares/Third_Party/FreeRTOS/Source/event_groups.c **** 
 382              		.loc 1 326 4 view .LVU114
 329:Middlewares/Third_Party/FreeRTOS/Source/event_groups.c **** 			{
 383              		.loc 1 329 4 view .LVU115
 329:Middlewares/Third_Party/FreeRTOS/Source/event_groups.c **** 			{
 384              		.loc 1 329 6 is_stmt 0 view .LVU116
 385 0082 8FB3     		cbz	r7, .L23
 331:Middlewares/Third_Party/FreeRTOS/Source/event_groups.c **** 			}
 386              		.loc 1 331 5 is_stmt 1 view .LVU117
 331:Middlewares/Third_Party/FreeRTOS/Source/event_groups.c **** 			}
 387              		.loc 1 331 30 is_stmt 0 view .LVU118
 388 0084 25EA0404 		bic	r4, r5, r4
 389              	.LVL22:
 331:Middlewares/Third_Party/FreeRTOS/Source/event_groups.c **** 			}
 390              		.loc 1 331 30 view .LVU119
 391 0088 3460     		str	r4, [r6]
 392              	.LVL23:
 379:Middlewares/Third_Party/FreeRTOS/Source/event_groups.c **** 		}
 393              		.loc 1 379 68 is_stmt 1 view .LVU120
 394              	.LBE70:
 382:Middlewares/Third_Party/FreeRTOS/Source/event_groups.c **** 
 395              		.loc 1 382 2 view .LVU121
 396 008a 2DE0     		b	.L23
 397              	.LVL24:
 398              	.L18:
 310:Middlewares/Third_Party/FreeRTOS/Source/event_groups.c **** 	}
 399              		.loc 1 310 104 discriminator 8 view .LVU122
 314:Middlewares/Third_Party/FreeRTOS/Source/event_groups.c **** 	{
 400              		.loc 1 314 2 discriminator 8 view .LVU123
 401 008c FFF7FEFF 		bl	vTaskSuspendAll
 402              	.LVL25:
 403              	.LBB79:
 316:Middlewares/Third_Party/FreeRTOS/Source/event_groups.c **** 
 404              		.loc 1 316 3 discriminator 8 view .LVU124
 316:Middlewares/Third_Party/FreeRTOS/Source/event_groups.c **** 
ARM GAS  /tmp/ccNSc7lp.s 			page 24


 405              		.loc 1 316 21 is_stmt 0 discriminator 8 view .LVU125
 406 0090 3568     		ldr	r5, [r6]
 407              	.LVL26:
 319:Middlewares/Third_Party/FreeRTOS/Source/event_groups.c **** 
 408              		.loc 1 319 3 is_stmt 1 discriminator 8 view .LVU126
 409              	.LBB76:
 656:Middlewares/Third_Party/FreeRTOS/Source/event_groups.c **** {
 410              		.loc 1 656 19 discriminator 8 view .LVU127
 411              	.LBB73:
 658:Middlewares/Third_Party/FreeRTOS/Source/event_groups.c **** 
 412              		.loc 1 658 1 discriminator 8 view .LVU128
 660:Middlewares/Third_Party/FreeRTOS/Source/event_groups.c **** 	{
 413              		.loc 1 660 2 discriminator 8 view .LVU129
 414 0092 04EA0503 		and	r3, r4, r5
 660:Middlewares/Third_Party/FreeRTOS/Source/event_groups.c **** 	{
 415              		.loc 1 660 4 is_stmt 0 discriminator 8 view .LVU130
 416 0096 B8F1000F 		cmp	r8, #0
 417 009a 2AD1     		bne	.L24
 664:Middlewares/Third_Party/FreeRTOS/Source/event_groups.c **** 		{
 418              		.loc 1 664 3 is_stmt 1 view .LVU131
 664:Middlewares/Third_Party/FreeRTOS/Source/event_groups.c **** 		{
 419              		.loc 1 664 5 is_stmt 0 view .LVU132
 420 009c 002B     		cmp	r3, #0
 421 009e F0D1     		bne	.L22
 422              	.LVL27:
 664:Middlewares/Third_Party/FreeRTOS/Source/event_groups.c **** 		{
 423              		.loc 1 664 5 view .LVU133
 424              	.LBE73:
 425              	.LBE76:
 338:Middlewares/Third_Party/FreeRTOS/Source/event_groups.c **** 		{
 426              		.loc 1 338 8 is_stmt 1 view .LVU134
 338:Middlewares/Third_Party/FreeRTOS/Source/event_groups.c **** 		{
 427              		.loc 1 338 10 is_stmt 0 view .LVU135
 428 00a0 B9F1000F 		cmp	r9, #0
 429 00a4 20D0     		beq	.L23
 351:Middlewares/Third_Party/FreeRTOS/Source/event_groups.c **** 			{
 430              		.loc 1 351 4 is_stmt 1 view .LVU136
 351:Middlewares/Third_Party/FreeRTOS/Source/event_groups.c **** 			{
 431              		.loc 1 351 6 is_stmt 0 view .LVU137
 432 00a6 391E     		subs	r1, r7, #0
 433 00a8 18BF     		it	ne
 434 00aa 0121     		movne	r1, #1
 435 00ac 0906     		lsls	r1, r1, #24
 436              	.LVL28:
 357:Middlewares/Third_Party/FreeRTOS/Source/event_groups.c **** 			}
 437              		.loc 1 357 29 is_stmt 1 view .LVU138
 360:Middlewares/Third_Party/FreeRTOS/Source/event_groups.c **** 			{
 438              		.loc 1 360 4 view .LVU139
 439              	.L25:
 366:Middlewares/Third_Party/FreeRTOS/Source/event_groups.c **** 			}
 440              		.loc 1 366 29 view .LVU140
 372:Middlewares/Third_Party/FreeRTOS/Source/event_groups.c **** 
 441              		.loc 1 372 4 view .LVU141
 442 00ae 4A46     		mov	r2, r9
 443 00b0 2143     		orrs	r1, r1, r4
 444              	.LVL29:
 372:Middlewares/Third_Party/FreeRTOS/Source/event_groups.c **** 
ARM GAS  /tmp/ccNSc7lp.s 			page 25


 445              		.loc 1 372 4 is_stmt 0 view .LVU142
 446 00b2 301D     		adds	r0, r6, #4
 447 00b4 FFF7FEFF 		bl	vTaskPlaceOnUnorderedEventList
 448              	.LVL30:
 377:Middlewares/Third_Party/FreeRTOS/Source/event_groups.c **** 
 449              		.loc 1 377 4 is_stmt 1 view .LVU143
 379:Middlewares/Third_Party/FreeRTOS/Source/event_groups.c **** 		}
 450              		.loc 1 379 68 view .LVU144
 451              	.LBE79:
 382:Middlewares/Third_Party/FreeRTOS/Source/event_groups.c **** 
 452              		.loc 1 382 2 view .LVU145
 382:Middlewares/Third_Party/FreeRTOS/Source/event_groups.c **** 
 453              		.loc 1 382 20 is_stmt 0 view .LVU146
 454 00b8 FFF7FEFF 		bl	xTaskResumeAll
 455              	.LVL31:
 384:Middlewares/Third_Party/FreeRTOS/Source/event_groups.c **** 	{
 456              		.loc 1 384 2 is_stmt 1 view .LVU147
 386:Middlewares/Third_Party/FreeRTOS/Source/event_groups.c **** 		{
 457              		.loc 1 386 3 view .LVU148
 386:Middlewares/Third_Party/FreeRTOS/Source/event_groups.c **** 		{
 458              		.loc 1 386 5 is_stmt 0 view .LVU149
 459 00bc 28B3     		cbz	r0, .L29
 460              	.L30:
 392:Middlewares/Third_Party/FreeRTOS/Source/event_groups.c **** 		}
 461              		.loc 1 392 28 is_stmt 1 view .LVU150
 399:Middlewares/Third_Party/FreeRTOS/Source/event_groups.c **** 
 462              		.loc 1 399 3 view .LVU151
 399:Middlewares/Third_Party/FreeRTOS/Source/event_groups.c **** 
 463              		.loc 1 399 14 is_stmt 0 view .LVU152
 464 00be FFF7FEFF 		bl	uxTaskResetEventItemValue
 465              	.LVL32:
 401:Middlewares/Third_Party/FreeRTOS/Source/event_groups.c **** 		{
 466              		.loc 1 401 5 view .LVU153
 467 00c2 8301     		lsls	r3, r0, #6
 399:Middlewares/Third_Party/FreeRTOS/Source/event_groups.c **** 
 468              		.loc 1 399 14 view .LVU154
 469 00c4 0546     		mov	r5, r0
 470              	.LVL33:
 401:Middlewares/Third_Party/FreeRTOS/Source/event_groups.c **** 		{
 471              		.loc 1 401 3 is_stmt 1 view .LVU155
 401:Middlewares/Third_Party/FreeRTOS/Source/event_groups.c **** 		{
 472              		.loc 1 401 5 is_stmt 0 view .LVU156
 473 00c6 0AD4     		bmi	.L31
 403:Middlewares/Third_Party/FreeRTOS/Source/event_groups.c **** 			{
 474              		.loc 1 403 4 is_stmt 1 view .LVU157
 475 00c8 FFF7FEFF 		bl	vPortEnterCritical
 476              	.LVL34:
 406:Middlewares/Third_Party/FreeRTOS/Source/event_groups.c **** 
 477              		.loc 1 406 5 view .LVU158
 406:Middlewares/Third_Party/FreeRTOS/Source/event_groups.c **** 
 478              		.loc 1 406 14 is_stmt 0 view .LVU159
 479 00cc 3568     		ldr	r5, [r6]
 480              	.LVL35:
 410:Middlewares/Third_Party/FreeRTOS/Source/event_groups.c **** 				{
 481              		.loc 1 410 5 is_stmt 1 view .LVU160
 482              	.LBB80:
 483              	.LBI80:
ARM GAS  /tmp/ccNSc7lp.s 			page 26


 656:Middlewares/Third_Party/FreeRTOS/Source/event_groups.c **** {
 484              		.loc 1 656 19 view .LVU161
 485              	.LBB81:
 658:Middlewares/Third_Party/FreeRTOS/Source/event_groups.c **** 
 486              		.loc 1 658 1 view .LVU162
 660:Middlewares/Third_Party/FreeRTOS/Source/event_groups.c **** 	{
 487              		.loc 1 660 2 view .LVU163
 488 00ce 04EA0503 		and	r3, r4, r5
 660:Middlewares/Third_Party/FreeRTOS/Source/event_groups.c **** 	{
 489              		.loc 1 660 4 is_stmt 0 view .LVU164
 490 00d2 B8F1000F 		cmp	r8, #0
 491 00d6 23D1     		bne	.L32
 664:Middlewares/Third_Party/FreeRTOS/Source/event_groups.c **** 		{
 492              		.loc 1 664 3 is_stmt 1 view .LVU165
 664:Middlewares/Third_Party/FreeRTOS/Source/event_groups.c **** 		{
 493              		.loc 1 664 5 is_stmt 0 view .LVU166
 494 00d8 23BB     		cbnz	r3, .L33
 495              	.LVL36:
 496              	.L34:
 664:Middlewares/Third_Party/FreeRTOS/Source/event_groups.c **** 		{
 497              		.loc 1 664 5 view .LVU167
 498              	.LBE81:
 499              	.LBE80:
 423:Middlewares/Third_Party/FreeRTOS/Source/event_groups.c **** 				}
 500              		.loc 1 423 30 is_stmt 1 view .LVU168
 425:Middlewares/Third_Party/FreeRTOS/Source/event_groups.c **** 			}
 501              		.loc 1 425 5 view .LVU169
 427:Middlewares/Third_Party/FreeRTOS/Source/event_groups.c **** 		}
 502              		.loc 1 427 4 view .LVU170
 503 00da FFF7FEFF 		bl	vPortExitCritical
 504              	.LVL37:
 505              	.L31:
 432:Middlewares/Third_Party/FreeRTOS/Source/event_groups.c **** 
 506              		.loc 1 432 3 view .LVU171
 435:Middlewares/Third_Party/FreeRTOS/Source/event_groups.c **** 	}
 507              		.loc 1 435 3 view .LVU172
 435:Middlewares/Third_Party/FreeRTOS/Source/event_groups.c **** 	}
 508              		.loc 1 435 12 is_stmt 0 view .LVU173
 509 00de 25F07F45 		bic	r5, r5, #-16777216
 510              	.LVL38:
 437:Middlewares/Third_Party/FreeRTOS/Source/event_groups.c **** 
 511              		.loc 1 437 2 is_stmt 1 view .LVU174
 440:Middlewares/Third_Party/FreeRTOS/Source/event_groups.c **** 
 512              		.loc 1 440 2 view .LVU175
 442:Middlewares/Third_Party/FreeRTOS/Source/event_groups.c **** }
 513              		.loc 1 442 2 view .LVU176
 442:Middlewares/Third_Party/FreeRTOS/Source/event_groups.c **** }
 514              		.loc 1 442 9 is_stmt 0 view .LVU177
 515 00e2 03E0     		b	.L11
 516              	.LVL39:
 517              	.L21:
 518              	.LBB83:
 519              	.LBB77:
 520              	.LBB74:
 664:Middlewares/Third_Party/FreeRTOS/Source/event_groups.c **** 		{
 521              		.loc 1 664 3 is_stmt 1 view .LVU178
 664:Middlewares/Third_Party/FreeRTOS/Source/event_groups.c **** 		{
ARM GAS  /tmp/ccNSc7lp.s 			page 27


 522              		.loc 1 664 5 is_stmt 0 view .LVU179
 523 00e4 002B     		cmp	r3, #0
 524 00e6 CCD1     		bne	.L22
 525              	.LVL40:
 526              	.L23:
 664:Middlewares/Third_Party/FreeRTOS/Source/event_groups.c **** 		{
 527              		.loc 1 664 5 view .LVU180
 528              	.LBE74:
 529              	.LBE77:
 379:Middlewares/Third_Party/FreeRTOS/Source/event_groups.c **** 		}
 530              		.loc 1 379 68 is_stmt 1 view .LVU181
 531              	.LBE83:
 382:Middlewares/Third_Party/FreeRTOS/Source/event_groups.c **** 
 532              		.loc 1 382 2 view .LVU182
 382:Middlewares/Third_Party/FreeRTOS/Source/event_groups.c **** 
 533              		.loc 1 382 20 is_stmt 0 view .LVU183
 534 00e8 FFF7FEFF 		bl	xTaskResumeAll
 535              	.LVL41:
 384:Middlewares/Third_Party/FreeRTOS/Source/event_groups.c **** 	{
 536              		.loc 1 384 2 is_stmt 1 view .LVU184
 537              	.L11:
 443:Middlewares/Third_Party/FreeRTOS/Source/event_groups.c **** /*-----------------------------------------------------------*/
 538              		.loc 1 443 1 is_stmt 0 view .LVU185
 539 00ec 2846     		mov	r0, r5
 540 00ee BDE8F883 		pop	{r3, r4, r5, r6, r7, r8, r9, pc}
 541              	.LVL42:
 542              	.L24:
 543              	.LBB84:
 544              	.LBB78:
 545              	.LBB75:
 677:Middlewares/Third_Party/FreeRTOS/Source/event_groups.c **** 		{
 546              		.loc 1 677 3 is_stmt 1 view .LVU186
 677:Middlewares/Third_Party/FreeRTOS/Source/event_groups.c **** 		{
 547              		.loc 1 677 5 is_stmt 0 view .LVU187
 548 00f2 9C42     		cmp	r4, r3
 549 00f4 C5D0     		beq	.L22
 550              	.LVL43:
 677:Middlewares/Third_Party/FreeRTOS/Source/event_groups.c **** 		{
 551              		.loc 1 677 5 view .LVU188
 552              	.LBE75:
 553              	.LBE78:
 338:Middlewares/Third_Party/FreeRTOS/Source/event_groups.c **** 		{
 554              		.loc 1 338 8 is_stmt 1 view .LVU189
 338:Middlewares/Third_Party/FreeRTOS/Source/event_groups.c **** 		{
 555              		.loc 1 338 10 is_stmt 0 view .LVU190
 556 00f6 B9F1000F 		cmp	r9, #0
 557 00fa F5D0     		beq	.L23
 351:Middlewares/Third_Party/FreeRTOS/Source/event_groups.c **** 			{
 558              		.loc 1 351 4 is_stmt 1 view .LVU191
 559              	.LVL44:
 357:Middlewares/Third_Party/FreeRTOS/Source/event_groups.c **** 			}
 560              		.loc 1 357 29 view .LVU192
 360:Middlewares/Third_Party/FreeRTOS/Source/event_groups.c **** 			{
 561              		.loc 1 360 4 view .LVU193
 362:Middlewares/Third_Party/FreeRTOS/Source/event_groups.c **** 			}
 562              		.loc 1 362 5 view .LVU194
 351:Middlewares/Third_Party/FreeRTOS/Source/event_groups.c **** 			{
ARM GAS  /tmp/ccNSc7lp.s 			page 28


 563              		.loc 1 351 6 is_stmt 0 view .LVU195
 564 00fc 391E     		subs	r1, r7, #0
 565 00fe 18BF     		it	ne
 566 0100 0121     		movne	r1, #1
 567 0102 0906     		lsls	r1, r1, #24
 362:Middlewares/Third_Party/FreeRTOS/Source/event_groups.c **** 			}
 568              		.loc 1 362 19 view .LVU196
 569 0104 41F08061 		orr	r1, r1, #67108864
 570              	.LVL45:
 362:Middlewares/Third_Party/FreeRTOS/Source/event_groups.c **** 			}
 571              		.loc 1 362 19 view .LVU197
 572 0108 D1E7     		b	.L25
 573              	.LVL46:
 574              	.L29:
 362:Middlewares/Third_Party/FreeRTOS/Source/event_groups.c **** 			}
 575              		.loc 1 362 19 view .LVU198
 576              	.LBE84:
 388:Middlewares/Third_Party/FreeRTOS/Source/event_groups.c **** 		}
 577              		.loc 1 388 4 is_stmt 1 view .LVU199
 578 010a 4FF0E023 		mov	r3, #-536813568
 579 010e 4FF08052 		mov	r2, #268435456
 580 0112 C3F8042D 		str	r2, [r3, #3332]
 388:Middlewares/Third_Party/FreeRTOS/Source/event_groups.c **** 		}
 581              		.loc 1 388 4 view .LVU200
 582              		.syntax unified
 583              	@ 388 "Middlewares/Third_Party/FreeRTOS/Source/event_groups.c" 1
 584 0116 BFF34F8F 		dsb
 585              	@ 0 "" 2
 388:Middlewares/Third_Party/FreeRTOS/Source/event_groups.c **** 		}
 586              		.loc 1 388 4 view .LVU201
 587              	@ 388 "Middlewares/Third_Party/FreeRTOS/Source/event_groups.c" 1
 588 011a BFF36F8F 		isb
 589              	@ 0 "" 2
 388:Middlewares/Third_Party/FreeRTOS/Source/event_groups.c **** 		}
 590              		.loc 1 388 26 view .LVU202
 591              		.thumb
 592              		.syntax unified
 593 011e CEE7     		b	.L30
 594              	.LVL47:
 595              	.L32:
 596              	.LBB85:
 597              	.LBB82:
 677:Middlewares/Third_Party/FreeRTOS/Source/event_groups.c **** 		{
 598              		.loc 1 677 3 view .LVU203
 677:Middlewares/Third_Party/FreeRTOS/Source/event_groups.c **** 		{
 599              		.loc 1 677 5 is_stmt 0 view .LVU204
 600 0120 9C42     		cmp	r4, r3
 601 0122 DAD1     		bne	.L34
 602              	.L33:
 603              	.LVL48:
 683:Middlewares/Third_Party/FreeRTOS/Source/event_groups.c **** 		}
 604              		.loc 1 683 28 is_stmt 1 view .LVU205
 605              		.loc 1 687 2 view .LVU206
 606              		.loc 1 687 2 is_stmt 0 view .LVU207
 607              	.LBE82:
 608              	.LBE85:
 412:Middlewares/Third_Party/FreeRTOS/Source/event_groups.c **** 					{
ARM GAS  /tmp/ccNSc7lp.s 			page 29


 609              		.loc 1 412 6 is_stmt 1 view .LVU208
 412:Middlewares/Third_Party/FreeRTOS/Source/event_groups.c **** 					{
 610              		.loc 1 412 8 is_stmt 0 view .LVU209
 611 0124 002F     		cmp	r7, #0
 612 0126 D8D0     		beq	.L34
 414:Middlewares/Third_Party/FreeRTOS/Source/event_groups.c **** 					}
 613              		.loc 1 414 7 is_stmt 1 view .LVU210
 414:Middlewares/Third_Party/FreeRTOS/Source/event_groups.c **** 					}
 614              		.loc 1 414 32 is_stmt 0 view .LVU211
 615 0128 25EA0404 		bic	r4, r5, r4
 616              	.LVL49:
 414:Middlewares/Third_Party/FreeRTOS/Source/event_groups.c **** 					}
 617              		.loc 1 414 32 view .LVU212
 618 012c 3460     		str	r4, [r6]
 619 012e D4E7     		b	.L34
 620              		.cfi_endproc
 621              	.LFE7:
 623              		.section	.text.xEventGroupClearBits,"ax",%progbits
 624              		.align	1
 625              		.global	xEventGroupClearBits
 626              		.syntax unified
 627              		.thumb
 628              		.thumb_func
 630              	xEventGroupClearBits:
 631              	.LVL50:
 632              	.LFB8:
 447:Middlewares/Third_Party/FreeRTOS/Source/event_groups.c **** EventGroup_t *pxEventBits = ( EventGroup_t * ) xEventGroup;
 633              		.loc 1 447 1 is_stmt 1 view -0
 634              		.cfi_startproc
 635              		@ args = 0, pretend = 0, frame = 0
 636              		@ frame_needed = 0, uses_anonymous_args = 0
 448:Middlewares/Third_Party/FreeRTOS/Source/event_groups.c **** EventBits_t uxReturn;
 637              		.loc 1 448 1 view .LVU214
 449:Middlewares/Third_Party/FreeRTOS/Source/event_groups.c **** 
 638              		.loc 1 449 1 view .LVU215
 453:Middlewares/Third_Party/FreeRTOS/Source/event_groups.c **** 	configASSERT( ( uxBitsToClear & eventEVENT_BITS_CONTROL_BYTES ) == 0 );
 639              		.loc 1 453 2 view .LVU216
 447:Middlewares/Third_Party/FreeRTOS/Source/event_groups.c **** EventGroup_t *pxEventBits = ( EventGroup_t * ) xEventGroup;
 640              		.loc 1 447 1 is_stmt 0 view .LVU217
 641 0000 70B5     		push	{r4, r5, r6, lr}
 642              		.cfi_def_cfa_offset 16
 643              		.cfi_offset 4, -16
 644              		.cfi_offset 5, -12
 645              		.cfi_offset 6, -8
 646              		.cfi_offset 14, -4
 447:Middlewares/Third_Party/FreeRTOS/Source/event_groups.c **** EventGroup_t *pxEventBits = ( EventGroup_t * ) xEventGroup;
 647              		.loc 1 447 1 view .LVU218
 648 0002 0C46     		mov	r4, r1
 453:Middlewares/Third_Party/FreeRTOS/Source/event_groups.c **** 	configASSERT( ( uxBitsToClear & eventEVENT_BITS_CONTROL_BYTES ) == 0 );
 649              		.loc 1 453 2 view .LVU219
 650 0004 0546     		mov	r5, r0
 651 0006 40B9     		cbnz	r0, .L45
 453:Middlewares/Third_Party/FreeRTOS/Source/event_groups.c **** 	configASSERT( ( uxBitsToClear & eventEVENT_BITS_CONTROL_BYTES ) == 0 );
 652              		.loc 1 453 2 is_stmt 1 view .LVU220
 653              	.LBB96:
 654              	.LBI96:
 191:Middlewares/Third_Party/FreeRTOS/Source/portable/GCC/ARM_CM3/portmacro.h **** {
ARM GAS  /tmp/ccNSc7lp.s 			page 30


 655              		.loc 2 191 30 view .LVU221
 656              	.LBB97:
 193:Middlewares/Third_Party/FreeRTOS/Source/portable/GCC/ARM_CM3/portmacro.h **** 
 657              		.loc 2 193 1 view .LVU222
 658              		.loc 2 195 2 view .LVU223
 659              		.syntax unified
 660              	@ 195 "Middlewares/Third_Party/FreeRTOS/Source/portable/GCC/ARM_CM3/portmacro.h" 1
 661 0008 4FF05003 			mov r3, #80												
 662 000c 83F31188 		msr basepri, r3											
 663 0010 BFF36F8F 		isb														
 664 0014 BFF34F8F 		dsb														
 665              	
 666              	@ 0 "" 2
 667              	.LVL51:
 668              		.thumb
 669              		.syntax unified
 670              	.L46:
 671              		.loc 2 195 2 is_stmt 0 view .LVU224
 672              	.LBE97:
 673              	.LBE96:
 453:Middlewares/Third_Party/FreeRTOS/Source/event_groups.c **** 	configASSERT( ( uxBitsToClear & eventEVENT_BITS_CONTROL_BYTES ) == 0 );
 674              		.loc 1 453 2 is_stmt 1 discriminator 1 view .LVU225
 453:Middlewares/Third_Party/FreeRTOS/Source/event_groups.c **** 	configASSERT( ( uxBitsToClear & eventEVENT_BITS_CONTROL_BYTES ) == 0 );
 675              		.loc 1 453 2 discriminator 1 view .LVU226
 676 0018 FEE7     		b	.L46
 677              	.L45:
 453:Middlewares/Third_Party/FreeRTOS/Source/event_groups.c **** 	configASSERT( ( uxBitsToClear & eventEVENT_BITS_CONTROL_BYTES ) == 0 );
 678              		.loc 1 453 29 discriminator 2 view .LVU227
 454:Middlewares/Third_Party/FreeRTOS/Source/event_groups.c **** 
 679              		.loc 1 454 2 discriminator 2 view .LVU228
 680 001a B1F1807F 		cmp	r1, #16777216
 681 001e 08D3     		bcc	.L47
 454:Middlewares/Third_Party/FreeRTOS/Source/event_groups.c **** 
 682              		.loc 1 454 2 view .LVU229
 683              	.LBB98:
 684              	.LBI98:
 191:Middlewares/Third_Party/FreeRTOS/Source/portable/GCC/ARM_CM3/portmacro.h **** {
 685              		.loc 2 191 30 view .LVU230
 686              	.LBB99:
 193:Middlewares/Third_Party/FreeRTOS/Source/portable/GCC/ARM_CM3/portmacro.h **** 
 687              		.loc 2 193 1 view .LVU231
 688              		.loc 2 195 2 view .LVU232
 689              		.syntax unified
 690              	@ 195 "Middlewares/Third_Party/FreeRTOS/Source/portable/GCC/ARM_CM3/portmacro.h" 1
 691 0020 4FF05003 			mov r3, #80												
 692 0024 83F31188 		msr basepri, r3											
 693 0028 BFF36F8F 		isb														
 694 002c BFF34F8F 		dsb														
 695              	
 696              	@ 0 "" 2
 697              	.LVL52:
 698              		.thumb
 699              		.syntax unified
 700              	.L48:
 701              		.loc 2 195 2 is_stmt 0 view .LVU233
 702              	.LBE99:
 703              	.LBE98:
ARM GAS  /tmp/ccNSc7lp.s 			page 31


 454:Middlewares/Third_Party/FreeRTOS/Source/event_groups.c **** 
 704              		.loc 1 454 2 is_stmt 1 discriminator 2 view .LVU234
 454:Middlewares/Third_Party/FreeRTOS/Source/event_groups.c **** 
 705              		.loc 1 454 2 discriminator 2 view .LVU235
 706 0030 FEE7     		b	.L48
 707              	.L47:
 708              	.LVL53:
 709              	.LBB100:
 710              	.LBI100:
 446:Middlewares/Third_Party/FreeRTOS/Source/event_groups.c **** {
 711              		.loc 1 446 13 view .LVU236
 712              	.LBB101:
 454:Middlewares/Third_Party/FreeRTOS/Source/event_groups.c **** 
 713              		.loc 1 454 72 view .LVU237
 456:Middlewares/Third_Party/FreeRTOS/Source/event_groups.c **** 	{
 714              		.loc 1 456 2 view .LVU238
 715 0032 FFF7FEFF 		bl	vPortEnterCritical
 716              	.LVL54:
 458:Middlewares/Third_Party/FreeRTOS/Source/event_groups.c **** 
 717              		.loc 1 458 60 view .LVU239
 462:Middlewares/Third_Party/FreeRTOS/Source/event_groups.c **** 
 718              		.loc 1 462 3 view .LVU240
 462:Middlewares/Third_Party/FreeRTOS/Source/event_groups.c **** 
 719              		.loc 1 462 12 is_stmt 0 view .LVU241
 720 0036 2E68     		ldr	r6, [r5]
 721              	.LVL55:
 465:Middlewares/Third_Party/FreeRTOS/Source/event_groups.c **** 	}
 722              		.loc 1 465 3 is_stmt 1 view .LVU242
 465:Middlewares/Third_Party/FreeRTOS/Source/event_groups.c **** 	}
 723              		.loc 1 465 28 is_stmt 0 view .LVU243
 724 0038 26EA0404 		bic	r4, r6, r4
 725              	.LVL56:
 465:Middlewares/Third_Party/FreeRTOS/Source/event_groups.c **** 	}
 726              		.loc 1 465 28 view .LVU244
 727 003c 2C60     		str	r4, [r5]
 467:Middlewares/Third_Party/FreeRTOS/Source/event_groups.c **** 
 728              		.loc 1 467 2 is_stmt 1 view .LVU245
 729 003e FFF7FEFF 		bl	vPortExitCritical
 730              	.LVL57:
 469:Middlewares/Third_Party/FreeRTOS/Source/event_groups.c **** }
 731              		.loc 1 469 2 view .LVU246
 469:Middlewares/Third_Party/FreeRTOS/Source/event_groups.c **** }
 732              		.loc 1 469 2 is_stmt 0 view .LVU247
 733              	.LBE101:
 734              	.LBE100:
 470:Middlewares/Third_Party/FreeRTOS/Source/event_groups.c **** /*-----------------------------------------------------------*/
 735              		.loc 1 470 1 view .LVU248
 736 0042 3046     		mov	r0, r6
 737 0044 70BD     		pop	{r4, r5, r6, pc}
 470:Middlewares/Third_Party/FreeRTOS/Source/event_groups.c **** /*-----------------------------------------------------------*/
 738              		.loc 1 470 1 view .LVU249
 739              		.cfi_endproc
 740              	.LFE8:
 742              		.section	.text.vEventGroupClearBitsCallback,"ax",%progbits
 743              		.align	1
 744              		.global	vEventGroupClearBitsCallback
 745              		.syntax unified
ARM GAS  /tmp/ccNSc7lp.s 			page 32


 746              		.thumb
 747              		.thumb_func
 749              	vEventGroupClearBitsCallback:
 750              	.LVL58:
 751              	.LFB14:
 651:Middlewares/Third_Party/FreeRTOS/Source/event_groups.c **** 	( void ) xEventGroupClearBits( pvEventGroup, ( EventBits_t ) ulBitsToClear );
 752              		.loc 1 651 1 is_stmt 1 view -0
 753              		.cfi_startproc
 754              		@ args = 0, pretend = 0, frame = 0
 755              		@ frame_needed = 0, uses_anonymous_args = 0
 756              		@ link register save eliminated.
 652:Middlewares/Third_Party/FreeRTOS/Source/event_groups.c **** }
 757              		.loc 1 652 2 view .LVU251
 652:Middlewares/Third_Party/FreeRTOS/Source/event_groups.c **** }
 758              		.loc 1 652 11 is_stmt 0 view .LVU252
 759 0000 FFF7FEBF 		b	xEventGroupClearBits
 760              	.LVL59:
 652:Middlewares/Third_Party/FreeRTOS/Source/event_groups.c **** }
 761              		.loc 1 652 11 view .LVU253
 762              		.cfi_endproc
 763              	.LFE14:
 765              		.section	.text.xEventGroupClearBitsFromISR,"ax",%progbits
 766              		.align	1
 767              		.global	xEventGroupClearBitsFromISR
 768              		.syntax unified
 769              		.thumb
 770              		.thumb_func
 772              	xEventGroupClearBitsFromISR:
 773              	.LVL60:
 774              	.LFB9:
 476:Middlewares/Third_Party/FreeRTOS/Source/event_groups.c **** 		BaseType_t xReturn;
 775              		.loc 1 476 2 is_stmt 1 view -0
 776              		.cfi_startproc
 777              		@ args = 0, pretend = 0, frame = 0
 778              		@ frame_needed = 0, uses_anonymous_args = 0
 779              		@ link register save eliminated.
 477:Middlewares/Third_Party/FreeRTOS/Source/event_groups.c **** 
 780              		.loc 1 477 3 view .LVU255
 479:Middlewares/Third_Party/FreeRTOS/Source/event_groups.c **** 		xReturn = xTimerPendFunctionCallFromISR( vEventGroupClearBitsCallback, ( void * ) xEventGroup, ( 
 781              		.loc 1 479 69 view .LVU256
 480:Middlewares/Third_Party/FreeRTOS/Source/event_groups.c **** 
 782              		.loc 1 480 3 view .LVU257
 476:Middlewares/Third_Party/FreeRTOS/Source/event_groups.c **** 		BaseType_t xReturn;
 783              		.loc 1 476 2 is_stmt 0 view .LVU258
 784 0000 0A46     		mov	r2, r1
 480:Middlewares/Third_Party/FreeRTOS/Source/event_groups.c **** 
 785              		.loc 1 480 13 view .LVU259
 786 0002 0023     		movs	r3, #0
 787 0004 0146     		mov	r1, r0
 788              	.LVL61:
 480:Middlewares/Third_Party/FreeRTOS/Source/event_groups.c **** 
 789              		.loc 1 480 13 view .LVU260
 790 0006 0148     		ldr	r0, .L51
 791              	.LVL62:
 480:Middlewares/Third_Party/FreeRTOS/Source/event_groups.c **** 
 792              		.loc 1 480 13 view .LVU261
 793 0008 FFF7FEBF 		b	xTimerPendFunctionCallFromISR
ARM GAS  /tmp/ccNSc7lp.s 			page 33


 794              	.LVL63:
 795              	.L52:
 480:Middlewares/Third_Party/FreeRTOS/Source/event_groups.c **** 
 796              		.loc 1 480 13 view .LVU262
 797              		.align	2
 798              	.L51:
 799 000c 00000000 		.word	vEventGroupClearBitsCallback
 800              		.cfi_endproc
 801              	.LFE9:
 803              		.section	.text.xEventGroupGetBitsFromISR,"ax",%progbits
 804              		.align	1
 805              		.global	xEventGroupGetBitsFromISR
 806              		.syntax unified
 807              		.thumb
 808              		.thumb_func
 810              	xEventGroupGetBitsFromISR:
 811              	.LVL64:
 812              	.LFB10:
 489:Middlewares/Third_Party/FreeRTOS/Source/event_groups.c **** UBaseType_t uxSavedInterruptStatus;
 813              		.loc 1 489 1 is_stmt 1 view -0
 814              		.cfi_startproc
 815              		@ args = 0, pretend = 0, frame = 0
 816              		@ frame_needed = 0, uses_anonymous_args = 0
 817              		@ link register save eliminated.
 490:Middlewares/Third_Party/FreeRTOS/Source/event_groups.c **** EventGroup_t *pxEventBits = ( EventGroup_t * ) xEventGroup;
 818              		.loc 1 490 1 view .LVU264
 491:Middlewares/Third_Party/FreeRTOS/Source/event_groups.c **** EventBits_t uxReturn;
 819              		.loc 1 491 1 view .LVU265
 492:Middlewares/Third_Party/FreeRTOS/Source/event_groups.c **** 
 820              		.loc 1 492 1 view .LVU266
 494:Middlewares/Third_Party/FreeRTOS/Source/event_groups.c **** 	{
 821              		.loc 1 494 2 view .LVU267
 822              	.LBB102:
 823              	.LBI102:
 196:Middlewares/Third_Party/FreeRTOS/Source/portable/GCC/ARM_CM3/portmacro.h **** 	(
 197:Middlewares/Third_Party/FreeRTOS/Source/portable/GCC/ARM_CM3/portmacro.h **** 		"	mov %0, %1												\n" \
 198:Middlewares/Third_Party/FreeRTOS/Source/portable/GCC/ARM_CM3/portmacro.h **** 		"	msr basepri, %0											\n" \
 199:Middlewares/Third_Party/FreeRTOS/Source/portable/GCC/ARM_CM3/portmacro.h **** 		"	isb														\n" \
 200:Middlewares/Third_Party/FreeRTOS/Source/portable/GCC/ARM_CM3/portmacro.h **** 		"	dsb														\n" \
 201:Middlewares/Third_Party/FreeRTOS/Source/portable/GCC/ARM_CM3/portmacro.h **** 		:"=r" (ulNewBASEPRI) : "i" ( configMAX_SYSCALL_INTERRUPT_PRIORITY ) : "memory"
 202:Middlewares/Third_Party/FreeRTOS/Source/portable/GCC/ARM_CM3/portmacro.h **** 	);
 203:Middlewares/Third_Party/FreeRTOS/Source/portable/GCC/ARM_CM3/portmacro.h **** }
 204:Middlewares/Third_Party/FreeRTOS/Source/portable/GCC/ARM_CM3/portmacro.h **** 
 205:Middlewares/Third_Party/FreeRTOS/Source/portable/GCC/ARM_CM3/portmacro.h **** /*-----------------------------------------------------------*/
 206:Middlewares/Third_Party/FreeRTOS/Source/portable/GCC/ARM_CM3/portmacro.h **** 
 207:Middlewares/Third_Party/FreeRTOS/Source/portable/GCC/ARM_CM3/portmacro.h **** portFORCE_INLINE static uint32_t ulPortRaiseBASEPRI( void )
 824              		.loc 2 207 34 view .LVU268
 825              	.LBB103:
 208:Middlewares/Third_Party/FreeRTOS/Source/portable/GCC/ARM_CM3/portmacro.h **** {
 209:Middlewares/Third_Party/FreeRTOS/Source/portable/GCC/ARM_CM3/portmacro.h **** uint32_t ulOriginalBASEPRI, ulNewBASEPRI;
 826              		.loc 2 209 1 view .LVU269
 210:Middlewares/Third_Party/FreeRTOS/Source/portable/GCC/ARM_CM3/portmacro.h **** 
 211:Middlewares/Third_Party/FreeRTOS/Source/portable/GCC/ARM_CM3/portmacro.h **** 	__asm volatile
 827              		.loc 2 211 2 view .LVU270
 828              		.syntax unified
 829              	@ 211 "Middlewares/Third_Party/FreeRTOS/Source/portable/GCC/ARM_CM3/portmacro.h" 1
 830 0000 EFF31183 			mrs r3, basepri											
ARM GAS  /tmp/ccNSc7lp.s 			page 34


 831 0004 4FF05002 		mov r2, #80												
 832 0008 82F31188 		msr basepri, r2											
 833 000c BFF36F8F 		isb														
 834 0010 BFF34F8F 		dsb														
 835              	
 836              	@ 0 "" 2
 837              	.LVL65:
 212:Middlewares/Third_Party/FreeRTOS/Source/portable/GCC/ARM_CM3/portmacro.h **** 	(
 213:Middlewares/Third_Party/FreeRTOS/Source/portable/GCC/ARM_CM3/portmacro.h **** 		"	mrs %0, basepri											\n" \
 214:Middlewares/Third_Party/FreeRTOS/Source/portable/GCC/ARM_CM3/portmacro.h **** 		"	mov %1, %2												\n" \
 215:Middlewares/Third_Party/FreeRTOS/Source/portable/GCC/ARM_CM3/portmacro.h **** 		"	msr basepri, %1											\n" \
 216:Middlewares/Third_Party/FreeRTOS/Source/portable/GCC/ARM_CM3/portmacro.h **** 		"	isb														\n" \
 217:Middlewares/Third_Party/FreeRTOS/Source/portable/GCC/ARM_CM3/portmacro.h **** 		"	dsb														\n" \
 218:Middlewares/Third_Party/FreeRTOS/Source/portable/GCC/ARM_CM3/portmacro.h **** 		:"=r" (ulOriginalBASEPRI), "=r" (ulNewBASEPRI) : "i" ( configMAX_SYSCALL_INTERRUPT_PRIORITY ) : "
 219:Middlewares/Third_Party/FreeRTOS/Source/portable/GCC/ARM_CM3/portmacro.h **** 	);
 220:Middlewares/Third_Party/FreeRTOS/Source/portable/GCC/ARM_CM3/portmacro.h **** 
 221:Middlewares/Third_Party/FreeRTOS/Source/portable/GCC/ARM_CM3/portmacro.h **** 	/* This return will not be reached but is necessary to prevent compiler
 222:Middlewares/Third_Party/FreeRTOS/Source/portable/GCC/ARM_CM3/portmacro.h **** 	warnings. */
 223:Middlewares/Third_Party/FreeRTOS/Source/portable/GCC/ARM_CM3/portmacro.h **** 	return ulOriginalBASEPRI;
 838              		.loc 2 223 2 view .LVU271
 839              		.loc 2 223 2 is_stmt 0 view .LVU272
 840              		.thumb
 841              		.syntax unified
 842              	.LBE103:
 843              	.LBE102:
 496:Middlewares/Third_Party/FreeRTOS/Source/event_groups.c **** 	}
 844              		.loc 1 496 3 is_stmt 1 view .LVU273
 496:Middlewares/Third_Party/FreeRTOS/Source/event_groups.c **** 	}
 845              		.loc 1 496 12 is_stmt 0 view .LVU274
 846 0014 0068     		ldr	r0, [r0]
 847              	.LVL66:
 498:Middlewares/Third_Party/FreeRTOS/Source/event_groups.c **** 
 848              		.loc 1 498 2 is_stmt 1 view .LVU275
 849              	.LBB104:
 850              	.LBI104:
 224:Middlewares/Third_Party/FreeRTOS/Source/portable/GCC/ARM_CM3/portmacro.h **** }
 225:Middlewares/Third_Party/FreeRTOS/Source/portable/GCC/ARM_CM3/portmacro.h **** /*-----------------------------------------------------------*/
 226:Middlewares/Third_Party/FreeRTOS/Source/portable/GCC/ARM_CM3/portmacro.h **** 
 227:Middlewares/Third_Party/FreeRTOS/Source/portable/GCC/ARM_CM3/portmacro.h **** portFORCE_INLINE static void vPortSetBASEPRI( uint32_t ulNewMaskValue )
 851              		.loc 2 227 30 view .LVU276
 852              	.LBB105:
 228:Middlewares/Third_Party/FreeRTOS/Source/portable/GCC/ARM_CM3/portmacro.h **** {
 229:Middlewares/Third_Party/FreeRTOS/Source/portable/GCC/ARM_CM3/portmacro.h **** 	__asm volatile
 853              		.loc 2 229 2 view .LVU277
 854              		.syntax unified
 855              	@ 229 "Middlewares/Third_Party/FreeRTOS/Source/portable/GCC/ARM_CM3/portmacro.h" 1
 856 0016 83F31188 			msr basepri, r3	
 857              	@ 0 "" 2
 858              	.LVL67:
 859              		.loc 2 229 2 is_stmt 0 view .LVU278
 860              		.thumb
 861              		.syntax unified
 862              	.LBE105:
 863              	.LBE104:
 500:Middlewares/Third_Party/FreeRTOS/Source/event_groups.c **** }
 864              		.loc 1 500 2 is_stmt 1 view .LVU279
 501:Middlewares/Third_Party/FreeRTOS/Source/event_groups.c **** /*-----------------------------------------------------------*/
ARM GAS  /tmp/ccNSc7lp.s 			page 35


 865              		.loc 1 501 1 is_stmt 0 view .LVU280
 866 001a 7047     		bx	lr
 867              		.cfi_endproc
 868              	.LFE10:
 870              		.section	.text.xEventGroupSetBits,"ax",%progbits
 871              		.align	1
 872              		.global	xEventGroupSetBits
 873              		.syntax unified
 874              		.thumb
 875              		.thumb_func
 877              	xEventGroupSetBits:
 878              	.LVL68:
 879              	.LFB11:
 505:Middlewares/Third_Party/FreeRTOS/Source/event_groups.c **** ListItem_t *pxListItem, *pxNext;
 880              		.loc 1 505 1 is_stmt 1 view -0
 881              		.cfi_startproc
 882              		@ args = 0, pretend = 0, frame = 0
 883              		@ frame_needed = 0, uses_anonymous_args = 0
 506:Middlewares/Third_Party/FreeRTOS/Source/event_groups.c **** ListItem_t const *pxListEnd;
 884              		.loc 1 506 1 view .LVU282
 507:Middlewares/Third_Party/FreeRTOS/Source/event_groups.c **** List_t *pxList;
 885              		.loc 1 507 1 view .LVU283
 508:Middlewares/Third_Party/FreeRTOS/Source/event_groups.c **** EventBits_t uxBitsToClear = 0, uxBitsWaitedFor, uxControlBits;
 886              		.loc 1 508 1 view .LVU284
 509:Middlewares/Third_Party/FreeRTOS/Source/event_groups.c **** EventGroup_t *pxEventBits = ( EventGroup_t * ) xEventGroup;
 887              		.loc 1 509 1 view .LVU285
 510:Middlewares/Third_Party/FreeRTOS/Source/event_groups.c **** BaseType_t xMatchFound = pdFALSE;
 888              		.loc 1 510 1 view .LVU286
 511:Middlewares/Third_Party/FreeRTOS/Source/event_groups.c **** 
 889              		.loc 1 511 1 view .LVU287
 515:Middlewares/Third_Party/FreeRTOS/Source/event_groups.c **** 	configASSERT( ( uxBitsToSet & eventEVENT_BITS_CONTROL_BYTES ) == 0 );
 890              		.loc 1 515 2 view .LVU288
 505:Middlewares/Third_Party/FreeRTOS/Source/event_groups.c **** ListItem_t *pxListItem, *pxNext;
 891              		.loc 1 505 1 is_stmt 0 view .LVU289
 892 0000 2DE9F041 		push	{r4, r5, r6, r7, r8, lr}
 893              		.cfi_def_cfa_offset 24
 894              		.cfi_offset 4, -24
 895              		.cfi_offset 5, -20
 896              		.cfi_offset 6, -16
 897              		.cfi_offset 7, -12
 898              		.cfi_offset 8, -8
 899              		.cfi_offset 14, -4
 505:Middlewares/Third_Party/FreeRTOS/Source/event_groups.c **** ListItem_t *pxListItem, *pxNext;
 900              		.loc 1 505 1 view .LVU290
 901 0004 0D46     		mov	r5, r1
 515:Middlewares/Third_Party/FreeRTOS/Source/event_groups.c **** 	configASSERT( ( uxBitsToSet & eventEVENT_BITS_CONTROL_BYTES ) == 0 );
 902              		.loc 1 515 2 view .LVU291
 903 0006 0446     		mov	r4, r0
 904 0008 40B9     		cbnz	r0, .L55
 515:Middlewares/Third_Party/FreeRTOS/Source/event_groups.c **** 	configASSERT( ( uxBitsToSet & eventEVENT_BITS_CONTROL_BYTES ) == 0 );
 905              		.loc 1 515 2 is_stmt 1 view .LVU292
 906              	.LBB116:
 907              	.LBI116:
 191:Middlewares/Third_Party/FreeRTOS/Source/portable/GCC/ARM_CM3/portmacro.h **** {
 908              		.loc 2 191 30 view .LVU293
 909              	.LBB117:
 193:Middlewares/Third_Party/FreeRTOS/Source/portable/GCC/ARM_CM3/portmacro.h **** 
ARM GAS  /tmp/ccNSc7lp.s 			page 36


 910              		.loc 2 193 1 view .LVU294
 195:Middlewares/Third_Party/FreeRTOS/Source/portable/GCC/ARM_CM3/portmacro.h **** 	(
 911              		.loc 2 195 2 view .LVU295
 912              		.syntax unified
 913              	@ 195 "Middlewares/Third_Party/FreeRTOS/Source/portable/GCC/ARM_CM3/portmacro.h" 1
 914 000a 4FF05003 			mov r3, #80												
 915 000e 83F31188 		msr basepri, r3											
 916 0012 BFF36F8F 		isb														
 917 0016 BFF34F8F 		dsb														
 918              	
 919              	@ 0 "" 2
 920              	.LVL69:
 921              		.thumb
 922              		.syntax unified
 923              	.L56:
 195:Middlewares/Third_Party/FreeRTOS/Source/portable/GCC/ARM_CM3/portmacro.h **** 	(
 924              		.loc 2 195 2 is_stmt 0 view .LVU296
 925              	.LBE117:
 926              	.LBE116:
 515:Middlewares/Third_Party/FreeRTOS/Source/event_groups.c **** 	configASSERT( ( uxBitsToSet & eventEVENT_BITS_CONTROL_BYTES ) == 0 );
 927              		.loc 1 515 2 is_stmt 1 discriminator 1 view .LVU297
 515:Middlewares/Third_Party/FreeRTOS/Source/event_groups.c **** 	configASSERT( ( uxBitsToSet & eventEVENT_BITS_CONTROL_BYTES ) == 0 );
 928              		.loc 1 515 2 discriminator 1 view .LVU298
 929 001a FEE7     		b	.L56
 930              	.L55:
 515:Middlewares/Third_Party/FreeRTOS/Source/event_groups.c **** 	configASSERT( ( uxBitsToSet & eventEVENT_BITS_CONTROL_BYTES ) == 0 );
 931              		.loc 1 515 29 discriminator 2 view .LVU299
 516:Middlewares/Third_Party/FreeRTOS/Source/event_groups.c **** 
 932              		.loc 1 516 2 discriminator 2 view .LVU300
 933 001c B1F1807F 		cmp	r1, #16777216
 934 0020 08D3     		bcc	.L57
 516:Middlewares/Third_Party/FreeRTOS/Source/event_groups.c **** 
 935              		.loc 1 516 2 view .LVU301
 936              	.LBB118:
 937              	.LBI118:
 191:Middlewares/Third_Party/FreeRTOS/Source/portable/GCC/ARM_CM3/portmacro.h **** {
 938              		.loc 2 191 30 view .LVU302
 939              	.LBB119:
 193:Middlewares/Third_Party/FreeRTOS/Source/portable/GCC/ARM_CM3/portmacro.h **** 
 940              		.loc 2 193 1 view .LVU303
 195:Middlewares/Third_Party/FreeRTOS/Source/portable/GCC/ARM_CM3/portmacro.h **** 	(
 941              		.loc 2 195 2 view .LVU304
 942              		.syntax unified
 943              	@ 195 "Middlewares/Third_Party/FreeRTOS/Source/portable/GCC/ARM_CM3/portmacro.h" 1
 944 0022 4FF05003 			mov r3, #80												
 945 0026 83F31188 		msr basepri, r3											
 946 002a BFF36F8F 		isb														
 947 002e BFF34F8F 		dsb														
 948              	
 949              	@ 0 "" 2
 950              	.LVL70:
 951              		.thumb
 952              		.syntax unified
 953              	.L58:
 195:Middlewares/Third_Party/FreeRTOS/Source/portable/GCC/ARM_CM3/portmacro.h **** 	(
 954              		.loc 2 195 2 is_stmt 0 view .LVU305
 955              	.LBE119:
ARM GAS  /tmp/ccNSc7lp.s 			page 37


 956              	.LBE118:
 516:Middlewares/Third_Party/FreeRTOS/Source/event_groups.c **** 
 957              		.loc 1 516 2 is_stmt 1 discriminator 2 view .LVU306
 516:Middlewares/Third_Party/FreeRTOS/Source/event_groups.c **** 
 958              		.loc 1 516 2 discriminator 2 view .LVU307
 959 0032 FEE7     		b	.L58
 960              	.L57:
 961              	.LVL71:
 962              	.LBB120:
 963              	.LBI120:
 504:Middlewares/Third_Party/FreeRTOS/Source/event_groups.c **** {
 964              		.loc 1 504 13 view .LVU308
 965              	.LBB121:
 516:Middlewares/Third_Party/FreeRTOS/Source/event_groups.c **** 
 966              		.loc 1 516 70 view .LVU309
 518:Middlewares/Third_Party/FreeRTOS/Source/event_groups.c **** 	pxListEnd = listGET_END_MARKER( pxList ); /*lint !e826 !e740 The mini list structure is used as th
 967              		.loc 1 518 2 view .LVU310
 519:Middlewares/Third_Party/FreeRTOS/Source/event_groups.c **** 	vTaskSuspendAll();
 968              		.loc 1 519 2 view .LVU311
 519:Middlewares/Third_Party/FreeRTOS/Source/event_groups.c **** 	vTaskSuspendAll();
 969              		.loc 1 519 12 is_stmt 0 view .LVU312
 970 0034 00F10C06 		add	r6, r0, #12
 971              	.LVL72:
 520:Middlewares/Third_Party/FreeRTOS/Source/event_groups.c **** 	{
 972              		.loc 1 520 2 is_stmt 1 view .LVU313
 973 0038 FFF7FEFF 		bl	vTaskSuspendAll
 974              	.LVL73:
 522:Middlewares/Third_Party/FreeRTOS/Source/event_groups.c **** 
 975              		.loc 1 522 56 view .LVU314
 524:Middlewares/Third_Party/FreeRTOS/Source/event_groups.c **** 
 976              		.loc 1 524 3 view .LVU315
 527:Middlewares/Third_Party/FreeRTOS/Source/event_groups.c **** 
 977              		.loc 1 527 28 is_stmt 0 view .LVU316
 978 003c 2368     		ldr	r3, [r4]
 524:Middlewares/Third_Party/FreeRTOS/Source/event_groups.c **** 
 979              		.loc 1 524 14 view .LVU317
 980 003e 2069     		ldr	r0, [r4, #16]
 981              	.LVL74:
 527:Middlewares/Third_Party/FreeRTOS/Source/event_groups.c **** 
 982              		.loc 1 527 3 is_stmt 1 view .LVU318
 527:Middlewares/Third_Party/FreeRTOS/Source/event_groups.c **** 
 983              		.loc 1 527 28 is_stmt 0 view .LVU319
 984 0040 2B43     		orrs	r3, r3, r5
 509:Middlewares/Third_Party/FreeRTOS/Source/event_groups.c **** EventGroup_t *pxEventBits = ( EventGroup_t * ) xEventGroup;
 985              		.loc 1 509 13 view .LVU320
 986 0042 0025     		movs	r5, #0
 987              	.LVL75:
 527:Middlewares/Third_Party/FreeRTOS/Source/event_groups.c **** 
 988              		.loc 1 527 28 view .LVU321
 989 0044 2360     		str	r3, [r4]
 530:Middlewares/Third_Party/FreeRTOS/Source/event_groups.c **** 		{
 990              		.loc 1 530 3 is_stmt 1 view .LVU322
 991              	.LVL76:
 992              	.L59:
 530:Middlewares/Third_Party/FreeRTOS/Source/event_groups.c **** 		{
 993              		.loc 1 530 21 view .LVU323
 994 0046 8642     		cmp	r6, r0
ARM GAS  /tmp/ccNSc7lp.s 			page 38


 543:Middlewares/Third_Party/FreeRTOS/Source/event_groups.c **** 				{
 995              		.loc 1 543 40 is_stmt 0 view .LVU324
 996 0048 2168     		ldr	r1, [r4]
 530:Middlewares/Third_Party/FreeRTOS/Source/event_groups.c **** 		{
 997              		.loc 1 530 21 view .LVU325
 998 004a 07D1     		bne	.L64
 590:Middlewares/Third_Party/FreeRTOS/Source/event_groups.c **** 	}
 999              		.loc 1 590 3 is_stmt 1 view .LVU326
 590:Middlewares/Third_Party/FreeRTOS/Source/event_groups.c **** 	}
 1000              		.loc 1 590 28 is_stmt 0 view .LVU327
 1001 004c 21EA0501 		bic	r1, r1, r5
 1002 0050 2160     		str	r1, [r4]
 592:Middlewares/Third_Party/FreeRTOS/Source/event_groups.c **** 
 1003              		.loc 1 592 2 is_stmt 1 view .LVU328
 592:Middlewares/Third_Party/FreeRTOS/Source/event_groups.c **** 
 1004              		.loc 1 592 11 is_stmt 0 view .LVU329
 1005 0052 FFF7FEFF 		bl	xTaskResumeAll
 1006              	.LVL77:
 594:Middlewares/Third_Party/FreeRTOS/Source/event_groups.c **** }
 1007              		.loc 1 594 2 is_stmt 1 view .LVU330
 594:Middlewares/Third_Party/FreeRTOS/Source/event_groups.c **** }
 1008              		.loc 1 594 2 is_stmt 0 view .LVU331
 1009              	.LBE121:
 1010              	.LBE120:
 595:Middlewares/Third_Party/FreeRTOS/Source/event_groups.c **** /*-----------------------------------------------------------*/
 1011              		.loc 1 595 1 view .LVU332
 1012 0056 2068     		ldr	r0, [r4]
 1013 0058 BDE8F081 		pop	{r4, r5, r6, r7, r8, pc}
 1014              	.LVL78:
 1015              	.L64:
 1016              	.LBB124:
 1017              	.LBB122:
 532:Middlewares/Third_Party/FreeRTOS/Source/event_groups.c **** 			uxBitsWaitedFor = listGET_LIST_ITEM_VALUE( pxListItem );
 1018              		.loc 1 532 4 is_stmt 1 view .LVU333
 533:Middlewares/Third_Party/FreeRTOS/Source/event_groups.c **** 			xMatchFound = pdFALSE;
 1019              		.loc 1 533 20 is_stmt 0 view .LVU334
 1020 005c D0E90028 		ldrd	r2, r8, [r0]
 1021              	.LVL79:
 534:Middlewares/Third_Party/FreeRTOS/Source/event_groups.c **** 
 1022              		.loc 1 534 4 is_stmt 1 view .LVU335
 537:Middlewares/Third_Party/FreeRTOS/Source/event_groups.c **** 			uxBitsWaitedFor &= ~eventEVENT_BITS_CONTROL_BYTES;
 1023              		.loc 1 537 4 view .LVU336
 538:Middlewares/Third_Party/FreeRTOS/Source/event_groups.c **** 
 1024              		.loc 1 538 4 view .LVU337
 538:Middlewares/Third_Party/FreeRTOS/Source/event_groups.c **** 
 1025              		.loc 1 538 20 is_stmt 0 view .LVU338
 1026 0060 22F07F43 		bic	r3, r2, #-16777216
 1027              	.LVL80:
 540:Middlewares/Third_Party/FreeRTOS/Source/event_groups.c **** 			{
 1028              		.loc 1 540 4 is_stmt 1 view .LVU339
 540:Middlewares/Third_Party/FreeRTOS/Source/event_groups.c **** 			{
 1029              		.loc 1 540 6 is_stmt 0 view .LVU340
 1030 0064 12F0806F 		tst	r2, #67108864
 543:Middlewares/Third_Party/FreeRTOS/Source/event_groups.c **** 				{
 1031              		.loc 1 543 27 view .LVU341
 1032 0068 03EA0107 		and	r7, r3, r1
 540:Middlewares/Third_Party/FreeRTOS/Source/event_groups.c **** 			{
ARM GAS  /tmp/ccNSc7lp.s 			page 39


 1033              		.loc 1 540 6 view .LVU342
 1034 006c 02D1     		bne	.L60
 543:Middlewares/Third_Party/FreeRTOS/Source/event_groups.c **** 				{
 1035              		.loc 1 543 5 is_stmt 1 view .LVU343
 543:Middlewares/Third_Party/FreeRTOS/Source/event_groups.c **** 				{
 1036              		.loc 1 543 7 is_stmt 0 view .LVU344
 1037 006e 1FB9     		cbnz	r7, .L61
 1038              	.LVL81:
 1039              	.L62:
 543:Middlewares/Third_Party/FreeRTOS/Source/event_groups.c **** 				{
 1040              		.loc 1 543 7 view .LVU345
 1041              	.LBE122:
 1042              	.LBE124:
 505:Middlewares/Third_Party/FreeRTOS/Source/event_groups.c **** ListItem_t *pxListItem, *pxNext;
 1043              		.loc 1 505 1 view .LVU346
 1044 0070 4046     		mov	r0, r8
 1045 0072 E8E7     		b	.L59
 1046              	.LVL82:
 1047              	.L60:
 1048              	.LBB125:
 1049              	.LBB123:
 552:Middlewares/Third_Party/FreeRTOS/Source/event_groups.c **** 			{
 1050              		.loc 1 552 9 is_stmt 1 view .LVU347
 552:Middlewares/Third_Party/FreeRTOS/Source/event_groups.c **** 			{
 1051              		.loc 1 552 11 is_stmt 0 view .LVU348
 1052 0074 BB42     		cmp	r3, r7
 1053 0076 FBD1     		bne	.L62
 1054              	.L61:
 1055              	.LVL83:
 565:Middlewares/Third_Party/FreeRTOS/Source/event_groups.c **** 				{
 1056              		.loc 1 565 5 is_stmt 1 view .LVU349
 565:Middlewares/Third_Party/FreeRTOS/Source/event_groups.c **** 				{
 1057              		.loc 1 565 7 is_stmt 0 view .LVU350
 1058 0078 D201     		lsls	r2, r2, #7
 1059              	.LVL84:
 567:Middlewares/Third_Party/FreeRTOS/Source/event_groups.c **** 				}
 1060              		.loc 1 567 6 is_stmt 1 view .LVU351
 579:Middlewares/Third_Party/FreeRTOS/Source/event_groups.c **** 			}
 1061              		.loc 1 579 5 is_stmt 0 view .LVU352
 1062 007a 41F00071 		orr	r1, r1, #33554432
 567:Middlewares/Third_Party/FreeRTOS/Source/event_groups.c **** 				}
 1063              		.loc 1 567 20 view .LVU353
 1064 007e 48BF     		it	mi
 1065 0080 1D43     		orrmi	r5, r5, r3
 1066              	.LVL85:
 571:Middlewares/Third_Party/FreeRTOS/Source/event_groups.c **** 				}
 1067              		.loc 1 571 30 is_stmt 1 view .LVU354
 579:Middlewares/Third_Party/FreeRTOS/Source/event_groups.c **** 			}
 1068              		.loc 1 579 5 view .LVU355
 1069 0082 FFF7FEFF 		bl	vTaskRemoveFromUnorderedEventList
 1070              	.LVL86:
 579:Middlewares/Third_Party/FreeRTOS/Source/event_groups.c **** 			}
 1071              		.loc 1 579 5 is_stmt 0 view .LVU356
 1072 0086 F3E7     		b	.L62
 1073              	.LBE123:
 1074              	.LBE125:
 1075              		.cfi_endproc
ARM GAS  /tmp/ccNSc7lp.s 			page 40


 1076              	.LFE11:
 1078              		.section	.text.xEventGroupSync,"ax",%progbits
 1079              		.align	1
 1080              		.global	xEventGroupSync
 1081              		.syntax unified
 1082              		.thumb
 1083              		.thumb_func
 1085              	xEventGroupSync:
 1086              	.LVL87:
 1087              	.LFB6:
 177:Middlewares/Third_Party/FreeRTOS/Source/event_groups.c **** EventBits_t uxOriginalBitValue, uxReturn;
 1088              		.loc 1 177 1 is_stmt 1 view -0
 1089              		.cfi_startproc
 1090              		@ args = 0, pretend = 0, frame = 0
 1091              		@ frame_needed = 0, uses_anonymous_args = 0
 183:Middlewares/Third_Party/FreeRTOS/Source/event_groups.c **** 	configASSERT( uxBitsToWaitFor != 0 );
 1092              		.loc 1 183 2 is_stmt 0 view .LVU358
 1093 0000 B2F1807F 		cmp	r2, #16777216
 177:Middlewares/Third_Party/FreeRTOS/Source/event_groups.c **** EventBits_t uxOriginalBitValue, uxReturn;
 1094              		.loc 1 177 1 view .LVU359
 1095 0004 2DE9F041 		push	{r4, r5, r6, r7, r8, lr}
 1096              		.cfi_def_cfa_offset 24
 1097              		.cfi_offset 4, -24
 1098              		.cfi_offset 5, -20
 1099              		.cfi_offset 6, -16
 1100              		.cfi_offset 7, -12
 1101              		.cfi_offset 8, -8
 1102              		.cfi_offset 14, -4
 177:Middlewares/Third_Party/FreeRTOS/Source/event_groups.c **** EventBits_t uxOriginalBitValue, uxReturn;
 1103              		.loc 1 177 1 view .LVU360
 1104 0008 0646     		mov	r6, r0
 1105 000a 8846     		mov	r8, r1
 1106 000c 1546     		mov	r5, r2
 178:Middlewares/Third_Party/FreeRTOS/Source/event_groups.c **** EventGroup_t *pxEventBits = ( EventGroup_t * ) xEventGroup;
 1107              		.loc 1 178 1 is_stmt 1 view .LVU361
 179:Middlewares/Third_Party/FreeRTOS/Source/event_groups.c **** BaseType_t xAlreadyYielded;
 1108              		.loc 1 179 1 view .LVU362
 1109              	.LVL88:
 180:Middlewares/Third_Party/FreeRTOS/Source/event_groups.c **** BaseType_t xTimeoutOccurred = pdFALSE;
 1110              		.loc 1 180 1 view .LVU363
 181:Middlewares/Third_Party/FreeRTOS/Source/event_groups.c **** 
 1111              		.loc 1 181 1 view .LVU364
 183:Middlewares/Third_Party/FreeRTOS/Source/event_groups.c **** 	configASSERT( uxBitsToWaitFor != 0 );
 1112              		.loc 1 183 2 view .LVU365
 177:Middlewares/Third_Party/FreeRTOS/Source/event_groups.c **** EventBits_t uxOriginalBitValue, uxReturn;
 1113              		.loc 1 177 1 is_stmt 0 view .LVU366
 1114 000e 1F46     		mov	r7, r3
 183:Middlewares/Third_Party/FreeRTOS/Source/event_groups.c **** 	configASSERT( uxBitsToWaitFor != 0 );
 1115              		.loc 1 183 2 view .LVU367
 1116 0010 08D3     		bcc	.L69
 183:Middlewares/Third_Party/FreeRTOS/Source/event_groups.c **** 	configASSERT( uxBitsToWaitFor != 0 );
 1117              		.loc 1 183 2 is_stmt 1 view .LVU368
 1118              	.LBB126:
 1119              	.LBI126:
 191:Middlewares/Third_Party/FreeRTOS/Source/portable/GCC/ARM_CM3/portmacro.h **** {
 1120              		.loc 2 191 30 view .LVU369
 1121              	.LBB127:
ARM GAS  /tmp/ccNSc7lp.s 			page 41


 193:Middlewares/Third_Party/FreeRTOS/Source/portable/GCC/ARM_CM3/portmacro.h **** 
 1122              		.loc 2 193 1 view .LVU370
 195:Middlewares/Third_Party/FreeRTOS/Source/portable/GCC/ARM_CM3/portmacro.h **** 	(
 1123              		.loc 2 195 2 view .LVU371
 1124              		.syntax unified
 1125              	@ 195 "Middlewares/Third_Party/FreeRTOS/Source/portable/GCC/ARM_CM3/portmacro.h" 1
 1126 0012 4FF05003 			mov r3, #80												
 1127 0016 83F31188 		msr basepri, r3											
 1128 001a BFF36F8F 		isb														
 1129 001e BFF34F8F 		dsb														
 1130              	
 1131              	@ 0 "" 2
 1132              	.LVL89:
 1133              		.thumb
 1134              		.syntax unified
 1135              	.L70:
 195:Middlewares/Third_Party/FreeRTOS/Source/portable/GCC/ARM_CM3/portmacro.h **** 	(
 1136              		.loc 2 195 2 is_stmt 0 view .LVU372
 1137              	.LBE127:
 1138              	.LBE126:
 183:Middlewares/Third_Party/FreeRTOS/Source/event_groups.c **** 	configASSERT( uxBitsToWaitFor != 0 );
 1139              		.loc 1 183 2 is_stmt 1 discriminator 1 view .LVU373
 183:Middlewares/Third_Party/FreeRTOS/Source/event_groups.c **** 	configASSERT( uxBitsToWaitFor != 0 );
 1140              		.loc 1 183 2 discriminator 1 view .LVU374
 1141 0022 FEE7     		b	.L70
 1142              	.LVL90:
 1143              	.L69:
 183:Middlewares/Third_Party/FreeRTOS/Source/event_groups.c **** 	configASSERT( uxBitsToWaitFor != 0 );
 1144              		.loc 1 183 74 discriminator 2 view .LVU375
 184:Middlewares/Third_Party/FreeRTOS/Source/event_groups.c **** 	#if ( ( INCLUDE_xTaskGetSchedulerState == 1 ) || ( configUSE_TIMERS == 1 ) )
 1145              		.loc 1 184 2 discriminator 2 view .LVU376
 1146 0024 42B9     		cbnz	r2, .L71
 184:Middlewares/Third_Party/FreeRTOS/Source/event_groups.c **** 	#if ( ( INCLUDE_xTaskGetSchedulerState == 1 ) || ( configUSE_TIMERS == 1 ) )
 1147              		.loc 1 184 2 view .LVU377
 1148              	.LBB128:
 1149              	.LBI128:
 191:Middlewares/Third_Party/FreeRTOS/Source/portable/GCC/ARM_CM3/portmacro.h **** {
 1150              		.loc 2 191 30 view .LVU378
 1151              	.LBB129:
 193:Middlewares/Third_Party/FreeRTOS/Source/portable/GCC/ARM_CM3/portmacro.h **** 
 1152              		.loc 2 193 1 view .LVU379
 195:Middlewares/Third_Party/FreeRTOS/Source/portable/GCC/ARM_CM3/portmacro.h **** 	(
 1153              		.loc 2 195 2 view .LVU380
 1154              		.syntax unified
 1155              	@ 195 "Middlewares/Third_Party/FreeRTOS/Source/portable/GCC/ARM_CM3/portmacro.h" 1
 1156 0026 4FF05003 			mov r3, #80												
 1157 002a 83F31188 		msr basepri, r3											
 1158 002e BFF36F8F 		isb														
 1159 0032 BFF34F8F 		dsb														
 1160              	
 1161              	@ 0 "" 2
 1162              	.LVL91:
 1163              		.thumb
 1164              		.syntax unified
 1165              	.L72:
 195:Middlewares/Third_Party/FreeRTOS/Source/portable/GCC/ARM_CM3/portmacro.h **** 	(
 1166              		.loc 2 195 2 is_stmt 0 view .LVU381
ARM GAS  /tmp/ccNSc7lp.s 			page 42


 1167              	.LBE129:
 1168              	.LBE128:
 184:Middlewares/Third_Party/FreeRTOS/Source/event_groups.c **** 	#if ( ( INCLUDE_xTaskGetSchedulerState == 1 ) || ( configUSE_TIMERS == 1 ) )
 1169              		.loc 1 184 2 is_stmt 1 discriminator 2 view .LVU382
 184:Middlewares/Third_Party/FreeRTOS/Source/event_groups.c **** 	#if ( ( INCLUDE_xTaskGetSchedulerState == 1 ) || ( configUSE_TIMERS == 1 ) )
 1170              		.loc 1 184 2 discriminator 2 view .LVU383
 1171 0036 FEE7     		b	.L72
 1172              	.LVL92:
 1173              	.L71:
 184:Middlewares/Third_Party/FreeRTOS/Source/event_groups.c **** 	#if ( ( INCLUDE_xTaskGetSchedulerState == 1 ) || ( configUSE_TIMERS == 1 ) )
 1174              		.loc 1 184 38 discriminator 2 view .LVU384
 187:Middlewares/Third_Party/FreeRTOS/Source/event_groups.c **** 	}
 1175              		.loc 1 187 3 discriminator 2 view .LVU385
 1176 0038 FFF7FEFF 		bl	xTaskGetSchedulerState
 1177              	.LVL93:
 187:Middlewares/Third_Party/FreeRTOS/Source/event_groups.c **** 	}
 1178              		.loc 1 187 3 is_stmt 0 discriminator 2 view .LVU386
 1179 003c 48B9     		cbnz	r0, .L73
 1180 003e 47B1     		cbz	r7, .L73
 187:Middlewares/Third_Party/FreeRTOS/Source/event_groups.c **** 	}
 1181              		.loc 1 187 3 is_stmt 1 view .LVU387
 1182              	.LBB130:
 1183              	.LBI130:
 191:Middlewares/Third_Party/FreeRTOS/Source/portable/GCC/ARM_CM3/portmacro.h **** {
 1184              		.loc 2 191 30 view .LVU388
 1185              	.LBB131:
 193:Middlewares/Third_Party/FreeRTOS/Source/portable/GCC/ARM_CM3/portmacro.h **** 
 1186              		.loc 2 193 1 view .LVU389
 195:Middlewares/Third_Party/FreeRTOS/Source/portable/GCC/ARM_CM3/portmacro.h **** 	(
 1187              		.loc 2 195 2 view .LVU390
 1188              		.syntax unified
 1189              	@ 195 "Middlewares/Third_Party/FreeRTOS/Source/portable/GCC/ARM_CM3/portmacro.h" 1
 1190 0040 4FF05003 			mov r3, #80												
 1191 0044 83F31188 		msr basepri, r3											
 1192 0048 BFF36F8F 		isb														
 1193 004c BFF34F8F 		dsb														
 1194              	
 1195              	@ 0 "" 2
 1196              	.LVL94:
 1197              		.thumb
 1198              		.syntax unified
 1199              	.L74:
 195:Middlewares/Third_Party/FreeRTOS/Source/portable/GCC/ARM_CM3/portmacro.h **** 	(
 1200              		.loc 2 195 2 is_stmt 0 view .LVU391
 1201              	.LBE131:
 1202              	.LBE130:
 187:Middlewares/Third_Party/FreeRTOS/Source/event_groups.c **** 	}
 1203              		.loc 1 187 3 is_stmt 1 discriminator 3 view .LVU392
 187:Middlewares/Third_Party/FreeRTOS/Source/event_groups.c **** 	}
 1204              		.loc 1 187 3 discriminator 3 view .LVU393
 1205 0050 FEE7     		b	.L74
 1206              	.L73:
 187:Middlewares/Third_Party/FreeRTOS/Source/event_groups.c **** 	}
 1207              		.loc 1 187 104 discriminator 8 view .LVU394
 191:Middlewares/Third_Party/FreeRTOS/Source/event_groups.c **** 	{
 1208              		.loc 1 191 2 discriminator 8 view .LVU395
 1209 0052 FFF7FEFF 		bl	vTaskSuspendAll
ARM GAS  /tmp/ccNSc7lp.s 			page 43


 1210              	.LVL95:
 193:Middlewares/Third_Party/FreeRTOS/Source/event_groups.c **** 
 1211              		.loc 1 193 3 discriminator 8 view .LVU396
 193:Middlewares/Third_Party/FreeRTOS/Source/event_groups.c **** 
 1212              		.loc 1 193 22 is_stmt 0 discriminator 8 view .LVU397
 1213 0056 3468     		ldr	r4, [r6]
 1214              	.LVL96:
 195:Middlewares/Third_Party/FreeRTOS/Source/event_groups.c **** 
 1215              		.loc 1 195 3 is_stmt 1 discriminator 8 view .LVU398
 195:Middlewares/Third_Party/FreeRTOS/Source/event_groups.c **** 
 1216              		.loc 1 195 12 is_stmt 0 discriminator 8 view .LVU399
 1217 0058 4146     		mov	r1, r8
 1218 005a 3046     		mov	r0, r6
 197:Middlewares/Third_Party/FreeRTOS/Source/event_groups.c **** 		{
 1219              		.loc 1 197 30 discriminator 8 view .LVU400
 1220 005c 44EA0804 		orr	r4, r4, r8
 1221              	.LVL97:
 195:Middlewares/Third_Party/FreeRTOS/Source/event_groups.c **** 
 1222              		.loc 1 195 12 discriminator 8 view .LVU401
 1223 0060 FFF7FEFF 		bl	xEventGroupSetBits
 1224              	.LVL98:
 197:Middlewares/Third_Party/FreeRTOS/Source/event_groups.c **** 		{
 1225              		.loc 1 197 3 is_stmt 1 discriminator 8 view .LVU402
 197:Middlewares/Third_Party/FreeRTOS/Source/event_groups.c **** 		{
 1226              		.loc 1 197 5 is_stmt 0 discriminator 8 view .LVU403
 1227 0064 35EA0403 		bics	r3, r5, r4
 1228 0068 08D1     		bne	.L75
 200:Middlewares/Third_Party/FreeRTOS/Source/event_groups.c **** 
 1229              		.loc 1 200 4 is_stmt 1 view .LVU404
 1230              	.LVL99:
 204:Middlewares/Third_Party/FreeRTOS/Source/event_groups.c **** 
 1231              		.loc 1 204 4 view .LVU405
 204:Middlewares/Third_Party/FreeRTOS/Source/event_groups.c **** 
 1232              		.loc 1 204 29 is_stmt 0 view .LVU406
 1233 006a 3368     		ldr	r3, [r6]
 1234 006c 23EA0503 		bic	r3, r3, r5
 1235 0070 3360     		str	r3, [r6]
 206:Middlewares/Third_Party/FreeRTOS/Source/event_groups.c **** 		}
 1236              		.loc 1 206 4 is_stmt 1 view .LVU407
 1237              	.LVL100:
 234:Middlewares/Third_Party/FreeRTOS/Source/event_groups.c **** 
 1238              		.loc 1 234 2 view .LVU408
 1239              	.L85:
 230:Middlewares/Third_Party/FreeRTOS/Source/event_groups.c **** 			}
 1240              		.loc 1 230 5 view .LVU409
 234:Middlewares/Third_Party/FreeRTOS/Source/event_groups.c **** 
 1241              		.loc 1 234 2 view .LVU410
 234:Middlewares/Third_Party/FreeRTOS/Source/event_groups.c **** 
 1242              		.loc 1 234 20 is_stmt 0 view .LVU411
 1243 0072 FFF7FEFF 		bl	xTaskResumeAll
 1244              	.LVL101:
 236:Middlewares/Third_Party/FreeRTOS/Source/event_groups.c **** 	{
 1245              		.loc 1 236 2 is_stmt 1 view .LVU412
 1246              	.L68:
 293:Middlewares/Third_Party/FreeRTOS/Source/event_groups.c **** /*-----------------------------------------------------------*/
 1247              		.loc 1 293 1 is_stmt 0 view .LVU413
 1248 0076 2046     		mov	r0, r4
ARM GAS  /tmp/ccNSc7lp.s 			page 44


 1249 0078 BDE8F081 		pop	{r4, r5, r6, r7, r8, pc}
 1250              	.LVL102:
 1251              	.L75:
 210:Middlewares/Third_Party/FreeRTOS/Source/event_groups.c **** 			{
 1252              		.loc 1 210 4 is_stmt 1 view .LVU414
 210:Middlewares/Third_Party/FreeRTOS/Source/event_groups.c **** 			{
 1253              		.loc 1 210 6 is_stmt 0 view .LVU415
 1254 007c DFB1     		cbz	r7, .L77
 212:Middlewares/Third_Party/FreeRTOS/Source/event_groups.c **** 
 1255              		.loc 1 212 77 is_stmt 1 view .LVU416
 217:Middlewares/Third_Party/FreeRTOS/Source/event_groups.c **** 
 1256              		.loc 1 217 5 view .LVU417
 1257 007e 3A46     		mov	r2, r7
 1258 0080 45F0A061 		orr	r1, r5, #83886080
 1259 0084 301D     		adds	r0, r6, #4
 1260 0086 FFF7FEFF 		bl	vTaskPlaceOnUnorderedEventList
 1261              	.LVL103:
 223:Middlewares/Third_Party/FreeRTOS/Source/event_groups.c **** 			}
 1262              		.loc 1 223 5 view .LVU418
 234:Middlewares/Third_Party/FreeRTOS/Source/event_groups.c **** 
 1263              		.loc 1 234 2 view .LVU419
 234:Middlewares/Third_Party/FreeRTOS/Source/event_groups.c **** 
 1264              		.loc 1 234 20 is_stmt 0 view .LVU420
 1265 008a FFF7FEFF 		bl	xTaskResumeAll
 1266              	.LVL104:
 236:Middlewares/Third_Party/FreeRTOS/Source/event_groups.c **** 	{
 1267              		.loc 1 236 2 is_stmt 1 view .LVU421
 238:Middlewares/Third_Party/FreeRTOS/Source/event_groups.c **** 		{
 1268              		.loc 1 238 3 view .LVU422
 238:Middlewares/Third_Party/FreeRTOS/Source/event_groups.c **** 		{
 1269              		.loc 1 238 5 is_stmt 0 view .LVU423
 1270 008e A0B1     		cbz	r0, .L78
 1271              	.L79:
 244:Middlewares/Third_Party/FreeRTOS/Source/event_groups.c **** 		}
 1272              		.loc 1 244 28 is_stmt 1 view .LVU424
 251:Middlewares/Third_Party/FreeRTOS/Source/event_groups.c **** 
 1273              		.loc 1 251 3 view .LVU425
 251:Middlewares/Third_Party/FreeRTOS/Source/event_groups.c **** 
 1274              		.loc 1 251 14 is_stmt 0 view .LVU426
 1275 0090 FFF7FEFF 		bl	uxTaskResetEventItemValue
 1276              	.LVL105:
 253:Middlewares/Third_Party/FreeRTOS/Source/event_groups.c **** 		{
 1277              		.loc 1 253 5 view .LVU427
 1278 0094 8301     		lsls	r3, r0, #6
 251:Middlewares/Third_Party/FreeRTOS/Source/event_groups.c **** 
 1279              		.loc 1 251 14 view .LVU428
 1280 0096 0446     		mov	r4, r0
 1281              	.LVL106:
 253:Middlewares/Third_Party/FreeRTOS/Source/event_groups.c **** 		{
 1282              		.loc 1 253 3 is_stmt 1 view .LVU429
 253:Middlewares/Third_Party/FreeRTOS/Source/event_groups.c **** 		{
 1283              		.loc 1 253 5 is_stmt 0 view .LVU430
 1284 0098 0AD4     		bmi	.L80
 256:Middlewares/Third_Party/FreeRTOS/Source/event_groups.c **** 			{
 1285              		.loc 1 256 4 is_stmt 1 view .LVU431
 1286 009a FFF7FEFF 		bl	vPortEnterCritical
 1287              	.LVL107:
ARM GAS  /tmp/ccNSc7lp.s 			page 45


 258:Middlewares/Third_Party/FreeRTOS/Source/event_groups.c **** 
 1288              		.loc 1 258 5 view .LVU432
 258:Middlewares/Third_Party/FreeRTOS/Source/event_groups.c **** 
 1289              		.loc 1 258 14 is_stmt 0 view .LVU433
 1290 009e 3468     		ldr	r4, [r6]
 1291              	.LVL108:
 264:Middlewares/Third_Party/FreeRTOS/Source/event_groups.c **** 				{
 1292              		.loc 1 264 5 is_stmt 1 view .LVU434
 264:Middlewares/Third_Party/FreeRTOS/Source/event_groups.c **** 				{
 1293              		.loc 1 264 7 is_stmt 0 view .LVU435
 1294 00a0 35EA0403 		bics	r3, r5, r4
 266:Middlewares/Third_Party/FreeRTOS/Source/event_groups.c **** 				}
 1295              		.loc 1 266 6 is_stmt 1 view .LVU436
 266:Middlewares/Third_Party/FreeRTOS/Source/event_groups.c **** 				}
 1296              		.loc 1 266 31 is_stmt 0 view .LVU437
 1297 00a4 04BF     		itt	eq
 1298 00a6 24EA0505 		biceq	r5, r4, r5
 1299              	.LVL109:
 266:Middlewares/Third_Party/FreeRTOS/Source/event_groups.c **** 				}
 1300              		.loc 1 266 31 view .LVU438
 1301 00aa 3560     		streq	r5, [r6]
 270:Middlewares/Third_Party/FreeRTOS/Source/event_groups.c **** 				}
 1302              		.loc 1 270 30 is_stmt 1 view .LVU439
 273:Middlewares/Third_Party/FreeRTOS/Source/event_groups.c **** 
 1303              		.loc 1 273 4 view .LVU440
 1304 00ac FFF7FEFF 		bl	vPortExitCritical
 1305              	.LVL110:
 275:Middlewares/Third_Party/FreeRTOS/Source/event_groups.c **** 		}
 1306              		.loc 1 275 4 view .LVU441
 1307              	.L80:
 280:Middlewares/Third_Party/FreeRTOS/Source/event_groups.c **** 
 1308              		.loc 1 280 3 view .LVU442
 284:Middlewares/Third_Party/FreeRTOS/Source/event_groups.c **** 	}
 1309              		.loc 1 284 3 view .LVU443
 284:Middlewares/Third_Party/FreeRTOS/Source/event_groups.c **** 	}
 1310              		.loc 1 284 12 is_stmt 0 view .LVU444
 1311 00b0 24F07F44 		bic	r4, r4, #-16777216
 1312              	.LVL111:
 287:Middlewares/Third_Party/FreeRTOS/Source/event_groups.c **** 
 1313              		.loc 1 287 2 is_stmt 1 view .LVU445
 290:Middlewares/Third_Party/FreeRTOS/Source/event_groups.c **** 
 1314              		.loc 1 290 2 view .LVU446
 292:Middlewares/Third_Party/FreeRTOS/Source/event_groups.c **** }
 1315              		.loc 1 292 2 view .LVU447
 292:Middlewares/Third_Party/FreeRTOS/Source/event_groups.c **** }
 1316              		.loc 1 292 9 is_stmt 0 view .LVU448
 1317 00b4 DFE7     		b	.L68
 1318              	.LVL112:
 1319              	.L77:
 229:Middlewares/Third_Party/FreeRTOS/Source/event_groups.c **** 				xTimeoutOccurred = pdTRUE;
 1320              		.loc 1 229 5 is_stmt 1 view .LVU449
 229:Middlewares/Third_Party/FreeRTOS/Source/event_groups.c **** 				xTimeoutOccurred = pdTRUE;
 1321              		.loc 1 229 14 is_stmt 0 view .LVU450
 1322 00b6 3468     		ldr	r4, [r6]
 1323 00b8 DBE7     		b	.L85
 1324              	.LVL113:
 1325              	.L78:
ARM GAS  /tmp/ccNSc7lp.s 			page 46


 240:Middlewares/Third_Party/FreeRTOS/Source/event_groups.c **** 		}
 1326              		.loc 1 240 4 is_stmt 1 view .LVU451
 1327 00ba 4FF0E023 		mov	r3, #-536813568
 1328 00be 4FF08052 		mov	r2, #268435456
 1329 00c2 C3F8042D 		str	r2, [r3, #3332]
 240:Middlewares/Third_Party/FreeRTOS/Source/event_groups.c **** 		}
 1330              		.loc 1 240 4 view .LVU452
 1331              		.syntax unified
 1332              	@ 240 "Middlewares/Third_Party/FreeRTOS/Source/event_groups.c" 1
 1333 00c6 BFF34F8F 		dsb
 1334              	@ 0 "" 2
 240:Middlewares/Third_Party/FreeRTOS/Source/event_groups.c **** 		}
 1335              		.loc 1 240 4 view .LVU453
 1336              	@ 240 "Middlewares/Third_Party/FreeRTOS/Source/event_groups.c" 1
 1337 00ca BFF36F8F 		isb
 1338              	@ 0 "" 2
 240:Middlewares/Third_Party/FreeRTOS/Source/event_groups.c **** 		}
 1339              		.loc 1 240 26 view .LVU454
 1340              		.thumb
 1341              		.syntax unified
 1342 00ce DFE7     		b	.L79
 1343              		.cfi_endproc
 1344              	.LFE6:
 1346              		.section	.text.vEventGroupSetBitsCallback,"ax",%progbits
 1347              		.align	1
 1348              		.global	vEventGroupSetBitsCallback
 1349              		.syntax unified
 1350              		.thumb
 1351              		.thumb_func
 1353              	vEventGroupSetBitsCallback:
 1354              	.LVL114:
 1355              	.LFB13:
 643:Middlewares/Third_Party/FreeRTOS/Source/event_groups.c **** 	( void ) xEventGroupSetBits( pvEventGroup, ( EventBits_t ) ulBitsToSet );
 1356              		.loc 1 643 1 view -0
 1357              		.cfi_startproc
 1358              		@ args = 0, pretend = 0, frame = 0
 1359              		@ frame_needed = 0, uses_anonymous_args = 0
 1360              		@ link register save eliminated.
 644:Middlewares/Third_Party/FreeRTOS/Source/event_groups.c **** }
 1361              		.loc 1 644 2 view .LVU456
 644:Middlewares/Third_Party/FreeRTOS/Source/event_groups.c **** }
 1362              		.loc 1 644 11 is_stmt 0 view .LVU457
 1363 0000 FFF7FEBF 		b	xEventGroupSetBits
 1364              	.LVL115:
 644:Middlewares/Third_Party/FreeRTOS/Source/event_groups.c **** }
 1365              		.loc 1 644 11 view .LVU458
 1366              		.cfi_endproc
 1367              	.LFE13:
 1369              		.section	.text.vEventGroupDelete,"ax",%progbits
 1370              		.align	1
 1371              		.global	vEventGroupDelete
 1372              		.syntax unified
 1373              		.thumb
 1374              		.thumb_func
 1376              	vEventGroupDelete:
 1377              	.LVL116:
 1378              	.LFB12:
ARM GAS  /tmp/ccNSc7lp.s 			page 47


 599:Middlewares/Third_Party/FreeRTOS/Source/event_groups.c **** EventGroup_t *pxEventBits = ( EventGroup_t * ) xEventGroup;
 1379              		.loc 1 599 1 is_stmt 1 view -0
 1380              		.cfi_startproc
 1381              		@ args = 0, pretend = 0, frame = 0
 1382              		@ frame_needed = 0, uses_anonymous_args = 0
 600:Middlewares/Third_Party/FreeRTOS/Source/event_groups.c **** const List_t *pxTasksWaitingForBits = &( pxEventBits->xTasksWaitingForBits );
 1383              		.loc 1 600 1 view .LVU460
 599:Middlewares/Third_Party/FreeRTOS/Source/event_groups.c **** EventGroup_t *pxEventBits = ( EventGroup_t * ) xEventGroup;
 1384              		.loc 1 599 1 is_stmt 0 view .LVU461
 1385 0000 38B5     		push	{r3, r4, r5, lr}
 1386              		.cfi_def_cfa_offset 16
 1387              		.cfi_offset 3, -16
 1388              		.cfi_offset 4, -12
 1389              		.cfi_offset 5, -8
 1390              		.cfi_offset 14, -4
 599:Middlewares/Third_Party/FreeRTOS/Source/event_groups.c **** EventGroup_t *pxEventBits = ( EventGroup_t * ) xEventGroup;
 1391              		.loc 1 599 1 view .LVU462
 1392 0002 0446     		mov	r4, r0
 1393              	.LVL117:
 601:Middlewares/Third_Party/FreeRTOS/Source/event_groups.c **** 
 1394              		.loc 1 601 1 is_stmt 1 view .LVU463
 603:Middlewares/Third_Party/FreeRTOS/Source/event_groups.c **** 	{
 1395              		.loc 1 603 2 view .LVU464
 1396 0004 FFF7FEFF 		bl	vTaskSuspendAll
 1397              	.LVL118:
 605:Middlewares/Third_Party/FreeRTOS/Source/event_groups.c **** 
 1398              		.loc 1 605 41 view .LVU465
 607:Middlewares/Third_Party/FreeRTOS/Source/event_groups.c **** 		{
 1399              		.loc 1 607 3 view .LVU466
 611:Middlewares/Third_Party/FreeRTOS/Source/event_groups.c **** 			vTaskRemoveFromUnorderedEventList( pxTasksWaitingForBits->xListEnd.pxNext, eventUNBLOCKED_DUE_TO
 1400              		.loc 1 611 4 is_stmt 0 view .LVU467
 1401 0008 04F10C05 		add	r5, r4, #12
 1402              	.L88:
 607:Middlewares/Third_Party/FreeRTOS/Source/event_groups.c **** 		{
 1403              		.loc 1 607 59 is_stmt 1 view .LVU468
 607:Middlewares/Third_Party/FreeRTOS/Source/event_groups.c **** 		{
 1404              		.loc 1 607 10 is_stmt 0 view .LVU469
 1405 000c 6368     		ldr	r3, [r4, #4]
 607:Middlewares/Third_Party/FreeRTOS/Source/event_groups.c **** 		{
 1406              		.loc 1 607 59 view .LVU470
 1407 000e 43B9     		cbnz	r3, .L91
 625:Middlewares/Third_Party/FreeRTOS/Source/event_groups.c **** 			{
 1408              		.loc 1 625 4 is_stmt 1 view .LVU471
 625:Middlewares/Third_Party/FreeRTOS/Source/event_groups.c **** 			{
 1409              		.loc 1 625 6 is_stmt 0 view .LVU472
 1410 0010 237F     		ldrb	r3, [r4, #28]	@ zero_extendqisi2
 1411 0012 13B9     		cbnz	r3, .L92
 627:Middlewares/Third_Party/FreeRTOS/Source/event_groups.c **** 			}
 1412              		.loc 1 627 5 is_stmt 1 view .LVU473
 1413 0014 2046     		mov	r0, r4
 1414 0016 FFF7FEFF 		bl	vPortFree
 1415              	.LVL119:
 1416              	.L92:
 631:Middlewares/Third_Party/FreeRTOS/Source/event_groups.c **** 			}
 1417              		.loc 1 631 29 view .LVU474
 636:Middlewares/Third_Party/FreeRTOS/Source/event_groups.c **** }
 1418              		.loc 1 636 2 view .LVU475
ARM GAS  /tmp/ccNSc7lp.s 			page 48


 637:Middlewares/Third_Party/FreeRTOS/Source/event_groups.c **** /*-----------------------------------------------------------*/
 1419              		.loc 1 637 1 is_stmt 0 view .LVU476
 1420 001a BDE83840 		pop	{r3, r4, r5, lr}
 1421              		.cfi_remember_state
 1422              		.cfi_restore 14
 1423              		.cfi_restore 5
 1424              		.cfi_restore 4
 1425              		.cfi_restore 3
 1426              		.cfi_def_cfa_offset 0
 1427              	.LVL120:
 636:Middlewares/Third_Party/FreeRTOS/Source/event_groups.c **** }
 1428              		.loc 1 636 11 view .LVU477
 1429 001e FFF7FEBF 		b	xTaskResumeAll
 1430              	.LVL121:
 1431              	.L91:
 1432              		.cfi_restore_state
 611:Middlewares/Third_Party/FreeRTOS/Source/event_groups.c **** 			vTaskRemoveFromUnorderedEventList( pxTasksWaitingForBits->xListEnd.pxNext, eventUNBLOCKED_DUE_TO
 1433              		.loc 1 611 4 is_stmt 1 view .LVU478
 1434 0022 2069     		ldr	r0, [r4, #16]
 1435 0024 A842     		cmp	r0, r5
 1436 0026 08D1     		bne	.L89
 611:Middlewares/Third_Party/FreeRTOS/Source/event_groups.c **** 			vTaskRemoveFromUnorderedEventList( pxTasksWaitingForBits->xListEnd.pxNext, eventUNBLOCKED_DUE_TO
 1437              		.loc 1 611 4 view .LVU479
 1438              	.LBB132:
 1439              	.LBI132:
 191:Middlewares/Third_Party/FreeRTOS/Source/portable/GCC/ARM_CM3/portmacro.h **** {
 1440              		.loc 2 191 30 view .LVU480
 1441              	.LBB133:
 193:Middlewares/Third_Party/FreeRTOS/Source/portable/GCC/ARM_CM3/portmacro.h **** 
 1442              		.loc 2 193 1 view .LVU481
 195:Middlewares/Third_Party/FreeRTOS/Source/portable/GCC/ARM_CM3/portmacro.h **** 	(
 1443              		.loc 2 195 2 view .LVU482
 1444              		.syntax unified
 1445              	@ 195 "Middlewares/Third_Party/FreeRTOS/Source/portable/GCC/ARM_CM3/portmacro.h" 1
 1446 0028 4FF05003 			mov r3, #80												
 1447 002c 83F31188 		msr basepri, r3											
 1448 0030 BFF36F8F 		isb														
 1449 0034 BFF34F8F 		dsb														
 1450              	
 1451              	@ 0 "" 2
 1452              	.LVL122:
 1453              		.thumb
 1454              		.syntax unified
 1455              	.L90:
 195:Middlewares/Third_Party/FreeRTOS/Source/portable/GCC/ARM_CM3/portmacro.h **** 	(
 1456              		.loc 2 195 2 is_stmt 0 view .LVU483
 1457              	.LBE133:
 1458              	.LBE132:
 611:Middlewares/Third_Party/FreeRTOS/Source/event_groups.c **** 			vTaskRemoveFromUnorderedEventList( pxTasksWaitingForBits->xListEnd.pxNext, eventUNBLOCKED_DUE_TO
 1459              		.loc 1 611 4 is_stmt 1 discriminator 1 view .LVU484
 611:Middlewares/Third_Party/FreeRTOS/Source/event_groups.c **** 			vTaskRemoveFromUnorderedEventList( pxTasksWaitingForBits->xListEnd.pxNext, eventUNBLOCKED_DUE_TO
 1460              		.loc 1 611 4 discriminator 1 view .LVU485
 1461 0038 FEE7     		b	.L90
 1462              	.L89:
 611:Middlewares/Third_Party/FreeRTOS/Source/event_groups.c **** 			vTaskRemoveFromUnorderedEventList( pxTasksWaitingForBits->xListEnd.pxNext, eventUNBLOCKED_DUE_TO
 1463              		.loc 1 611 121 discriminator 2 view .LVU486
 612:Middlewares/Third_Party/FreeRTOS/Source/event_groups.c **** 		}
ARM GAS  /tmp/ccNSc7lp.s 			page 49


 1464              		.loc 1 612 4 discriminator 2 view .LVU487
 1465 003a 4FF00071 		mov	r1, #33554432
 1466 003e FFF7FEFF 		bl	vTaskRemoveFromUnorderedEventList
 1467              	.LVL123:
 1468 0042 E3E7     		b	.L88
 1469              		.cfi_endproc
 1470              	.LFE12:
 1472              		.section	.text.xEventGroupSetBitsFromISR,"ax",%progbits
 1473              		.align	1
 1474              		.global	xEventGroupSetBitsFromISR
 1475              		.syntax unified
 1476              		.thumb
 1477              		.thumb_func
 1479              	xEventGroupSetBitsFromISR:
 1480              	.LVL124:
 1481              	.LFB16:
 688:Middlewares/Third_Party/FreeRTOS/Source/event_groups.c **** }
 689:Middlewares/Third_Party/FreeRTOS/Source/event_groups.c **** /*-----------------------------------------------------------*/
 690:Middlewares/Third_Party/FreeRTOS/Source/event_groups.c **** 
 691:Middlewares/Third_Party/FreeRTOS/Source/event_groups.c **** #if ( ( configUSE_TRACE_FACILITY == 1 ) && ( INCLUDE_xTimerPendFunctionCall == 1 ) && ( configUSE_T
 692:Middlewares/Third_Party/FreeRTOS/Source/event_groups.c **** 
 693:Middlewares/Third_Party/FreeRTOS/Source/event_groups.c **** 	BaseType_t xEventGroupSetBitsFromISR( EventGroupHandle_t xEventGroup, const EventBits_t uxBitsToSe
 694:Middlewares/Third_Party/FreeRTOS/Source/event_groups.c **** 	{
 1482              		.loc 1 694 2 view -0
 1483              		.cfi_startproc
 1484              		@ args = 0, pretend = 0, frame = 0
 1485              		@ frame_needed = 0, uses_anonymous_args = 0
 1486              		@ link register save eliminated.
 695:Middlewares/Third_Party/FreeRTOS/Source/event_groups.c **** 	BaseType_t xReturn;
 1487              		.loc 1 695 2 view .LVU489
 696:Middlewares/Third_Party/FreeRTOS/Source/event_groups.c **** 
 697:Middlewares/Third_Party/FreeRTOS/Source/event_groups.c **** 		traceEVENT_GROUP_SET_BITS_FROM_ISR( xEventGroup, uxBitsToSet );
 1488              		.loc 1 697 65 view .LVU490
 698:Middlewares/Third_Party/FreeRTOS/Source/event_groups.c **** 		xReturn = xTimerPendFunctionCallFromISR( vEventGroupSetBitsCallback, ( void * ) xEventGroup, ( ui
 1489              		.loc 1 698 3 view .LVU491
 694:Middlewares/Third_Party/FreeRTOS/Source/event_groups.c **** 	BaseType_t xReturn;
 1490              		.loc 1 694 2 is_stmt 0 view .LVU492
 1491 0000 1346     		mov	r3, r2
 1492              		.loc 1 698 13 view .LVU493
 1493 0002 0A46     		mov	r2, r1
 1494              	.LVL125:
 1495              		.loc 1 698 13 view .LVU494
 1496 0004 0146     		mov	r1, r0
 1497              	.LVL126:
 1498              		.loc 1 698 13 view .LVU495
 1499 0006 0148     		ldr	r0, .L94
 1500              	.LVL127:
 1501              		.loc 1 698 13 view .LVU496
 1502 0008 FFF7FEBF 		b	xTimerPendFunctionCallFromISR
 1503              	.LVL128:
 1504              	.L95:
 1505              		.loc 1 698 13 view .LVU497
 1506              		.align	2
 1507              	.L94:
 1508 000c 00000000 		.word	vEventGroupSetBitsCallback
 1509              		.cfi_endproc
 1510              	.LFE16:
ARM GAS  /tmp/ccNSc7lp.s 			page 50


 1512              		.section	.text.uxEventGroupGetNumber,"ax",%progbits
 1513              		.align	1
 1514              		.global	uxEventGroupGetNumber
 1515              		.syntax unified
 1516              		.thumb
 1517              		.thumb_func
 1519              	uxEventGroupGetNumber:
 1520              	.LVL129:
 1521              	.LFB17:
 699:Middlewares/Third_Party/FreeRTOS/Source/event_groups.c **** 
 700:Middlewares/Third_Party/FreeRTOS/Source/event_groups.c **** 		return xReturn;
 701:Middlewares/Third_Party/FreeRTOS/Source/event_groups.c **** 	}
 702:Middlewares/Third_Party/FreeRTOS/Source/event_groups.c **** 
 703:Middlewares/Third_Party/FreeRTOS/Source/event_groups.c **** #endif
 704:Middlewares/Third_Party/FreeRTOS/Source/event_groups.c **** /*-----------------------------------------------------------*/
 705:Middlewares/Third_Party/FreeRTOS/Source/event_groups.c **** 
 706:Middlewares/Third_Party/FreeRTOS/Source/event_groups.c **** #if (configUSE_TRACE_FACILITY == 1)
 707:Middlewares/Third_Party/FreeRTOS/Source/event_groups.c **** 
 708:Middlewares/Third_Party/FreeRTOS/Source/event_groups.c **** 	UBaseType_t uxEventGroupGetNumber( void* xEventGroup )
 709:Middlewares/Third_Party/FreeRTOS/Source/event_groups.c **** 	{
 1522              		.loc 1 709 2 is_stmt 1 view -0
 1523              		.cfi_startproc
 1524              		@ args = 0, pretend = 0, frame = 0
 1525              		@ frame_needed = 0, uses_anonymous_args = 0
 1526              		@ link register save eliminated.
 710:Middlewares/Third_Party/FreeRTOS/Source/event_groups.c **** 	UBaseType_t xReturn;
 1527              		.loc 1 710 2 view .LVU499
 711:Middlewares/Third_Party/FreeRTOS/Source/event_groups.c **** 	EventGroup_t *pxEventBits = ( EventGroup_t * ) xEventGroup;
 1528              		.loc 1 711 2 view .LVU500
 712:Middlewares/Third_Party/FreeRTOS/Source/event_groups.c **** 
 713:Middlewares/Third_Party/FreeRTOS/Source/event_groups.c **** 		if( xEventGroup == NULL )
 1529              		.loc 1 713 3 view .LVU501
 1530              		.loc 1 713 5 is_stmt 0 view .LVU502
 1531 0000 00B1     		cbz	r0, .L96
 714:Middlewares/Third_Party/FreeRTOS/Source/event_groups.c **** 		{
 715:Middlewares/Third_Party/FreeRTOS/Source/event_groups.c **** 			xReturn = 0;
 716:Middlewares/Third_Party/FreeRTOS/Source/event_groups.c **** 		}
 717:Middlewares/Third_Party/FreeRTOS/Source/event_groups.c **** 		else
 718:Middlewares/Third_Party/FreeRTOS/Source/event_groups.c **** 		{
 719:Middlewares/Third_Party/FreeRTOS/Source/event_groups.c **** 			xReturn = pxEventBits->uxEventGroupNumber;
 1532              		.loc 1 719 4 is_stmt 1 view .LVU503
 1533              		.loc 1 719 12 is_stmt 0 view .LVU504
 1534 0002 8069     		ldr	r0, [r0, #24]
 1535              	.LVL130:
 1536              	.L96:
 720:Middlewares/Third_Party/FreeRTOS/Source/event_groups.c **** 		}
 721:Middlewares/Third_Party/FreeRTOS/Source/event_groups.c **** 
 722:Middlewares/Third_Party/FreeRTOS/Source/event_groups.c **** 		return xReturn;
 723:Middlewares/Third_Party/FreeRTOS/Source/event_groups.c **** 	}
 1537              		.loc 1 723 2 view .LVU505
 1538 0004 7047     		bx	lr
 1539              		.cfi_endproc
 1540              	.LFE17:
 1542              		.section	.text.vEventGroupSetNumber,"ax",%progbits
 1543              		.align	1
 1544              		.global	vEventGroupSetNumber
 1545              		.syntax unified
ARM GAS  /tmp/ccNSc7lp.s 			page 51


 1546              		.thumb
 1547              		.thumb_func
 1549              	vEventGroupSetNumber:
 1550              	.LVL131:
 1551              	.LFB18:
 724:Middlewares/Third_Party/FreeRTOS/Source/event_groups.c **** 
 725:Middlewares/Third_Party/FreeRTOS/Source/event_groups.c **** #endif /* configUSE_TRACE_FACILITY */
 726:Middlewares/Third_Party/FreeRTOS/Source/event_groups.c **** /*-----------------------------------------------------------*/
 727:Middlewares/Third_Party/FreeRTOS/Source/event_groups.c **** 
 728:Middlewares/Third_Party/FreeRTOS/Source/event_groups.c **** #if ( configUSE_TRACE_FACILITY == 1 )
 729:Middlewares/Third_Party/FreeRTOS/Source/event_groups.c **** 
 730:Middlewares/Third_Party/FreeRTOS/Source/event_groups.c **** 	void vEventGroupSetNumber( void * xEventGroup, UBaseType_t uxEventGroupNumber )
 731:Middlewares/Third_Party/FreeRTOS/Source/event_groups.c **** 	{
 1552              		.loc 1 731 2 is_stmt 1 view -0
 1553              		.cfi_startproc
 1554              		@ args = 0, pretend = 0, frame = 0
 1555              		@ frame_needed = 0, uses_anonymous_args = 0
 1556              		@ link register save eliminated.
 732:Middlewares/Third_Party/FreeRTOS/Source/event_groups.c **** 		( ( EventGroup_t * ) xEventGroup )->uxEventGroupNumber = uxEventGroupNumber;
 1557              		.loc 1 732 3 view .LVU507
 1558              		.loc 1 732 58 is_stmt 0 view .LVU508
 1559 0000 8161     		str	r1, [r0, #24]
 733:Middlewares/Third_Party/FreeRTOS/Source/event_groups.c **** 	}
 1560              		.loc 1 733 2 view .LVU509
 1561 0002 7047     		bx	lr
 1562              		.cfi_endproc
 1563              	.LFE18:
 1565              		.text
 1566              	.Letext0:
 1567              		.file 3 "/home/paul/.config/Code/User/globalStorage/bmd.stm32-for-vscode/@xpack-dev-tools/arm-none
 1568              		.file 4 "/home/paul/.config/Code/User/globalStorage/bmd.stm32-for-vscode/@xpack-dev-tools/arm-none
 1569              		.file 5 "/home/paul/.config/Code/User/globalStorage/bmd.stm32-for-vscode/@xpack-dev-tools/arm-none
 1570              		.file 6 "Middlewares/Third_Party/FreeRTOS/Source/include/FreeRTOS.h"
 1571              		.file 7 "Middlewares/Third_Party/FreeRTOS/Source/include/list.h"
 1572              		.file 8 "Middlewares/Third_Party/FreeRTOS/Source/include/timers.h"
 1573              		.file 9 "Middlewares/Third_Party/FreeRTOS/Source/include/event_groups.h"
 1574              		.file 10 "Middlewares/Third_Party/FreeRTOS/Source/include/portable.h"
 1575              		.file 11 "Middlewares/Third_Party/FreeRTOS/Source/include/task.h"
ARM GAS  /tmp/ccNSc7lp.s 			page 52

