ARM GAS  /tmp/cc2fxlJn.s 			page 1


   1              		.cpu cortex-m3
   2              		.arch armv7-m
   3              		.fpu softvfp
   4              		.eabi_attribute 20, 1
   5              		.eabi_attribute 21, 1
   6              		.eabi_attribute 23, 3
   7              		.eabi_attribute 24, 1
   8              		.eabi_attribute 25, 1
   9              		.eabi_attribute 26, 1
  10              		.eabi_attribute 30, 4
  11              		.eabi_attribute 34, 1
  12              		.eabi_attribute 18, 4
  13              		.file	"main.c"
  14              		.text
  15              	.Ltext0:
  16              		.cfi_sections	.debug_frame
  17              		.file 1 "Core/Src/main.c"
  18              		.section	.text.SystemClock_Config,"ax",%progbits
  19              		.align	1
  20              		.global	SystemClock_Config
  21              		.syntax unified
  22              		.thumb
  23              		.thumb_func
  25              	SystemClock_Config:
  26              	.LFB70:
   1:Core/Src/main.c **** /* USER CODE BEGIN Header */
   2:Core/Src/main.c **** /**
   3:Core/Src/main.c ****   ******************************************************************************
   4:Core/Src/main.c ****   * @file           : main.c
   5:Core/Src/main.c ****   * @brief          : Main program body
   6:Core/Src/main.c ****   ******************************************************************************
   7:Core/Src/main.c ****   * @attention
   8:Core/Src/main.c ****   *
   9:Core/Src/main.c ****   * Copyright (c) 2024 STMicroelectronics.
  10:Core/Src/main.c ****   * All rights reserved.
  11:Core/Src/main.c ****   *
  12:Core/Src/main.c ****   * This software is licensed under terms that can be found in the LICENSE file
  13:Core/Src/main.c ****   * in the root directory of this software component.
  14:Core/Src/main.c ****   * If no LICENSE file comes with this software, it is provided AS-IS.
  15:Core/Src/main.c ****   *
  16:Core/Src/main.c ****   ******************************************************************************
  17:Core/Src/main.c ****   */
  18:Core/Src/main.c **** /* USER CODE END Header */
  19:Core/Src/main.c **** /* Includes ------------------------------------------------------------------*/
  20:Core/Src/main.c **** #include "main.h"
  21:Core/Src/main.c **** #include "cmsis_os.h"
  22:Core/Src/main.c **** #include "adc.h"
  23:Core/Src/main.c **** #include "dma.h"
  24:Core/Src/main.c **** #include "i2c.h"
  25:Core/Src/main.c **** #include "tim.h"
  26:Core/Src/main.c **** #include "usart.h"
  27:Core/Src/main.c **** #include "usb.h"
  28:Core/Src/main.c **** #include "gpio.h"
  29:Core/Src/main.c **** 
  30:Core/Src/main.c **** /* Private includes ----------------------------------------------------------*/
  31:Core/Src/main.c **** /* USER CODE BEGIN Includes */
  32:Core/Src/main.c **** 
ARM GAS  /tmp/cc2fxlJn.s 			page 2


  33:Core/Src/main.c **** /* USER CODE END Includes */
  34:Core/Src/main.c **** 
  35:Core/Src/main.c **** /* Private typedef -----------------------------------------------------------*/
  36:Core/Src/main.c **** /* USER CODE BEGIN PTD */
  37:Core/Src/main.c **** 
  38:Core/Src/main.c **** /* USER CODE END PTD */
  39:Core/Src/main.c **** 
  40:Core/Src/main.c **** /* Private define ------------------------------------------------------------*/
  41:Core/Src/main.c **** /* USER CODE BEGIN PD */
  42:Core/Src/main.c **** 
  43:Core/Src/main.c **** /* USER CODE END PD */
  44:Core/Src/main.c **** 
  45:Core/Src/main.c **** /* Private macro -------------------------------------------------------------*/
  46:Core/Src/main.c **** /* USER CODE BEGIN PM */
  47:Core/Src/main.c **** 
  48:Core/Src/main.c **** /* USER CODE END PM */
  49:Core/Src/main.c **** 
  50:Core/Src/main.c **** /* Private variables ---------------------------------------------------------*/
  51:Core/Src/main.c **** 
  52:Core/Src/main.c **** /* USER CODE BEGIN PV */
  53:Core/Src/main.c **** 
  54:Core/Src/main.c **** /* USER CODE END PV */
  55:Core/Src/main.c **** 
  56:Core/Src/main.c **** /* Private function prototypes -----------------------------------------------*/
  57:Core/Src/main.c **** void SystemClock_Config(void);
  58:Core/Src/main.c **** void MX_FREERTOS_Init(void);
  59:Core/Src/main.c **** /* USER CODE BEGIN PFP */
  60:Core/Src/main.c **** 
  61:Core/Src/main.c **** /* USER CODE END PFP */
  62:Core/Src/main.c **** 
  63:Core/Src/main.c **** /* Private user code ---------------------------------------------------------*/
  64:Core/Src/main.c **** /* USER CODE BEGIN 0 */
  65:Core/Src/main.c **** 
  66:Core/Src/main.c **** /* USER CODE END 0 */
  67:Core/Src/main.c **** 
  68:Core/Src/main.c **** /**
  69:Core/Src/main.c ****   * @brief  The application entry point.
  70:Core/Src/main.c ****   * @retval int
  71:Core/Src/main.c ****   */
  72:Core/Src/main.c **** int main(void)
  73:Core/Src/main.c **** {
  74:Core/Src/main.c ****   /* USER CODE BEGIN 1 */
  75:Core/Src/main.c **** 
  76:Core/Src/main.c ****   /* USER CODE END 1 */
  77:Core/Src/main.c **** 
  78:Core/Src/main.c ****   /* MCU Configuration--------------------------------------------------------*/
  79:Core/Src/main.c **** 
  80:Core/Src/main.c ****   /* Reset of all peripherals, Initializes the Flash interface and the Systick. */
  81:Core/Src/main.c ****   HAL_Init();
  82:Core/Src/main.c **** 
  83:Core/Src/main.c ****   /* USER CODE BEGIN Init */
  84:Core/Src/main.c **** 
  85:Core/Src/main.c ****   /* USER CODE END Init */
  86:Core/Src/main.c **** 
  87:Core/Src/main.c ****   /* Configure the system clock */
  88:Core/Src/main.c ****   SystemClock_Config();
  89:Core/Src/main.c **** 
ARM GAS  /tmp/cc2fxlJn.s 			page 3


  90:Core/Src/main.c ****   /* USER CODE BEGIN SysInit */
  91:Core/Src/main.c **** 
  92:Core/Src/main.c ****   /* USER CODE END SysInit */
  93:Core/Src/main.c **** 
  94:Core/Src/main.c ****   /* Initialize all configured peripherals */
  95:Core/Src/main.c ****   MX_GPIO_Init();
  96:Core/Src/main.c ****   MX_DMA_Init();
  97:Core/Src/main.c ****   MX_ADC1_Init();
  98:Core/Src/main.c ****   MX_I2C1_Init();
  99:Core/Src/main.c ****   MX_USART2_UART_Init();
 100:Core/Src/main.c ****   MX_USB_PCD_Init();
 101:Core/Src/main.c ****   MX_TIM3_Init();
 102:Core/Src/main.c ****   /* USER CODE BEGIN 2 */
 103:Core/Src/main.c **** 
 104:Core/Src/main.c ****   /* USER CODE END 2 */
 105:Core/Src/main.c **** 
 106:Core/Src/main.c ****   /* Init scheduler */
 107:Core/Src/main.c ****   osKernelInitialize();  /* Call init function for freertos objects (in freertos.c) */
 108:Core/Src/main.c ****   MX_FREERTOS_Init();
 109:Core/Src/main.c **** 
 110:Core/Src/main.c ****   /* Start scheduler */
 111:Core/Src/main.c ****   osKernelStart();
 112:Core/Src/main.c **** 
 113:Core/Src/main.c ****   /* We should never get here as control is now taken by the scheduler */
 114:Core/Src/main.c ****   /* Infinite loop */
 115:Core/Src/main.c ****   /* USER CODE BEGIN WHILE */
 116:Core/Src/main.c ****   while (1)
 117:Core/Src/main.c ****   {
 118:Core/Src/main.c ****     /* USER CODE END WHILE */
 119:Core/Src/main.c **** 
 120:Core/Src/main.c ****     /* USER CODE BEGIN 3 */
 121:Core/Src/main.c ****   }
 122:Core/Src/main.c ****   /* USER CODE END 3 */
 123:Core/Src/main.c **** }
 124:Core/Src/main.c **** 
 125:Core/Src/main.c **** /**
 126:Core/Src/main.c ****   * @brief System Clock Configuration
 127:Core/Src/main.c ****   * @retval None
 128:Core/Src/main.c ****   */
 129:Core/Src/main.c **** void SystemClock_Config(void)
 130:Core/Src/main.c **** {
  27              		.loc 1 130 1 view -0
  28              		.cfi_startproc
  29              		@ args = 0, pretend = 0, frame = 80
  30              		@ frame_needed = 0, uses_anonymous_args = 0
 131:Core/Src/main.c ****   RCC_OscInitTypeDef RCC_OscInitStruct = {0};
  31              		.loc 1 131 3 view .LVU1
 130:Core/Src/main.c ****   RCC_OscInitTypeDef RCC_OscInitStruct = {0};
  32              		.loc 1 130 1 is_stmt 0 view .LVU2
  33 0000 10B5     		push	{r4, lr}
  34              		.cfi_def_cfa_offset 8
  35              		.cfi_offset 4, -8
  36              		.cfi_offset 14, -4
  37 0002 94B0     		sub	sp, sp, #80
  38              		.cfi_def_cfa_offset 88
  39              		.loc 1 131 22 view .LVU3
  40 0004 1422     		movs	r2, #20
ARM GAS  /tmp/cc2fxlJn.s 			page 4


  41 0006 0021     		movs	r1, #0
  42 0008 0CA8     		add	r0, sp, #48
  43 000a FFF7FEFF 		bl	memset
  44              	.LVL0:
 132:Core/Src/main.c ****   RCC_ClkInitTypeDef RCC_ClkInitStruct = {0};
  45              		.loc 1 132 3 is_stmt 1 view .LVU4
  46              		.loc 1 132 22 is_stmt 0 view .LVU5
  47 000e 1422     		movs	r2, #20
  48 0010 0021     		movs	r1, #0
  49 0012 0DEB0200 		add	r0, sp, r2
  50 0016 FFF7FEFF 		bl	memset
  51              	.LVL1:
 133:Core/Src/main.c ****   RCC_PeriphCLKInitTypeDef PeriphClkInit = {0};
  52              		.loc 1 133 3 is_stmt 1 view .LVU6
  53              		.loc 1 133 28 is_stmt 0 view .LVU7
  54 001a 1022     		movs	r2, #16
  55 001c 0021     		movs	r1, #0
  56 001e 01A8     		add	r0, sp, #4
  57 0020 FFF7FEFF 		bl	memset
  58              	.LVL2:
 134:Core/Src/main.c **** 
 135:Core/Src/main.c ****   /** Initializes the RCC Oscillators according to the specified parameters
 136:Core/Src/main.c ****   * in the RCC_OscInitTypeDef structure.
 137:Core/Src/main.c ****   */
 138:Core/Src/main.c ****   RCC_OscInitStruct.OscillatorType = RCC_OSCILLATORTYPE_HSE;
  59              		.loc 1 138 3 is_stmt 1 view .LVU8
 139:Core/Src/main.c ****   RCC_OscInitStruct.HSEState = RCC_HSE_ON;
 140:Core/Src/main.c ****   RCC_OscInitStruct.HSEPredivValue = RCC_HSE_PREDIV_DIV1;
 141:Core/Src/main.c ****   RCC_OscInitStruct.HSIState = RCC_HSI_ON;
 142:Core/Src/main.c ****   RCC_OscInitStruct.PLL.PLLState = RCC_PLL_ON;
  60              		.loc 1 142 34 is_stmt 0 view .LVU9
  61 0024 0224     		movs	r4, #2
 139:Core/Src/main.c ****   RCC_OscInitStruct.HSEState = RCC_HSE_ON;
  62              		.loc 1 139 30 view .LVU10
  63 0026 4FF48033 		mov	r3, #65536
  64 002a 0122     		movs	r2, #1
 143:Core/Src/main.c ****   RCC_OscInitStruct.PLL.PLLSource = RCC_PLLSOURCE_HSE;
  65              		.loc 1 143 35 view .LVU11
  66 002c CDE91143 		strd	r4, r3, [sp, #68]
 139:Core/Src/main.c ****   RCC_OscInitStruct.HSEState = RCC_HSE_ON;
  67              		.loc 1 139 30 view .LVU12
  68 0030 CDE90A23 		strd	r2, r3, [sp, #40]
 140:Core/Src/main.c ****   RCC_OscInitStruct.HSIState = RCC_HSI_ON;
  69              		.loc 1 140 3 is_stmt 1 view .LVU13
 141:Core/Src/main.c ****   RCC_OscInitStruct.PLL.PLLState = RCC_PLL_ON;
  70              		.loc 1 141 3 view .LVU14
 144:Core/Src/main.c ****   RCC_OscInitStruct.PLL.PLLMUL = RCC_PLL_MUL9;
  71              		.loc 1 144 32 is_stmt 0 view .LVU15
  72 0034 4FF4E013 		mov	r3, #1835008
 145:Core/Src/main.c ****   if (HAL_RCC_OscConfig(&RCC_OscInitStruct) != HAL_OK)
  73              		.loc 1 145 7 view .LVU16
  74 0038 0AA8     		add	r0, sp, #40
 141:Core/Src/main.c ****   RCC_OscInitStruct.PLL.PLLState = RCC_PLL_ON;
  75              		.loc 1 141 30 view .LVU17
  76 003a 0E92     		str	r2, [sp, #56]
 142:Core/Src/main.c ****   RCC_OscInitStruct.PLL.PLLSource = RCC_PLLSOURCE_HSE;
  77              		.loc 1 142 3 is_stmt 1 view .LVU18
ARM GAS  /tmp/cc2fxlJn.s 			page 5


 144:Core/Src/main.c ****   RCC_OscInitStruct.PLL.PLLMUL = RCC_PLL_MUL9;
  78              		.loc 1 144 3 view .LVU19
 144:Core/Src/main.c ****   RCC_OscInitStruct.PLL.PLLMUL = RCC_PLL_MUL9;
  79              		.loc 1 144 32 is_stmt 0 view .LVU20
  80 003c 1393     		str	r3, [sp, #76]
  81              		.loc 1 145 3 is_stmt 1 view .LVU21
  82              		.loc 1 145 7 is_stmt 0 view .LVU22
  83 003e FFF7FEFF 		bl	HAL_RCC_OscConfig
  84              	.LVL3:
  85              		.loc 1 145 6 view .LVU23
  86 0042 08B1     		cbz	r0, .L2
 146:Core/Src/main.c ****   {
 147:Core/Src/main.c ****     Error_Handler();
  87              		.loc 1 147 5 is_stmt 1 view .LVU24
  88              	.LBB16:
  89              	.LBI16:
 148:Core/Src/main.c ****   }
 149:Core/Src/main.c **** 
 150:Core/Src/main.c ****   /** Initializes the CPU, AHB and APB buses clocks
 151:Core/Src/main.c ****   */
 152:Core/Src/main.c ****   RCC_ClkInitStruct.ClockType = RCC_CLOCKTYPE_HCLK|RCC_CLOCKTYPE_SYSCLK
 153:Core/Src/main.c ****                               |RCC_CLOCKTYPE_PCLK1|RCC_CLOCKTYPE_PCLK2;
 154:Core/Src/main.c ****   RCC_ClkInitStruct.SYSCLKSource = RCC_SYSCLKSOURCE_PLLCLK;
 155:Core/Src/main.c ****   RCC_ClkInitStruct.AHBCLKDivider = RCC_SYSCLK_DIV1;
 156:Core/Src/main.c ****   RCC_ClkInitStruct.APB1CLKDivider = RCC_HCLK_DIV2;
 157:Core/Src/main.c ****   RCC_ClkInitStruct.APB2CLKDivider = RCC_HCLK_DIV1;
 158:Core/Src/main.c **** 
 159:Core/Src/main.c ****   if (HAL_RCC_ClockConfig(&RCC_ClkInitStruct, FLASH_LATENCY_2) != HAL_OK)
 160:Core/Src/main.c ****   {
 161:Core/Src/main.c ****     Error_Handler();
 162:Core/Src/main.c ****   }
 163:Core/Src/main.c ****   PeriphClkInit.PeriphClockSelection = RCC_PERIPHCLK_ADC|RCC_PERIPHCLK_USB;
 164:Core/Src/main.c ****   PeriphClkInit.AdcClockSelection = RCC_ADCPCLK2_DIV6;
 165:Core/Src/main.c ****   PeriphClkInit.UsbClockSelection = RCC_USBCLKSOURCE_PLL_DIV1_5;
 166:Core/Src/main.c ****   if (HAL_RCCEx_PeriphCLKConfig(&PeriphClkInit) != HAL_OK)
 167:Core/Src/main.c ****   {
 168:Core/Src/main.c ****     Error_Handler();
 169:Core/Src/main.c ****   }
 170:Core/Src/main.c **** }
 171:Core/Src/main.c **** 
 172:Core/Src/main.c **** /* USER CODE BEGIN 4 */
 173:Core/Src/main.c **** 
 174:Core/Src/main.c **** /* USER CODE END 4 */
 175:Core/Src/main.c **** 
 176:Core/Src/main.c **** /**
 177:Core/Src/main.c ****   * @brief  Period elapsed callback in non blocking mode
 178:Core/Src/main.c ****   * @note   This function is called  when TIM4 interrupt took place, inside
 179:Core/Src/main.c ****   * HAL_TIM_IRQHandler(). It makes a direct call to HAL_IncTick() to increment
 180:Core/Src/main.c ****   * a global variable "uwTick" used as application time base.
 181:Core/Src/main.c ****   * @param  htim : TIM handle
 182:Core/Src/main.c ****   * @retval None
 183:Core/Src/main.c ****   */
 184:Core/Src/main.c **** void HAL_TIM_PeriodElapsedCallback(TIM_HandleTypeDef *htim)
 185:Core/Src/main.c **** {
 186:Core/Src/main.c ****   /* USER CODE BEGIN Callback 0 */
 187:Core/Src/main.c **** 
 188:Core/Src/main.c ****   /* USER CODE END Callback 0 */
ARM GAS  /tmp/cc2fxlJn.s 			page 6


 189:Core/Src/main.c ****   if (htim->Instance == TIM4) {
 190:Core/Src/main.c ****     HAL_IncTick();
 191:Core/Src/main.c ****   }
 192:Core/Src/main.c ****   /* USER CODE BEGIN Callback 1 */
 193:Core/Src/main.c **** 
 194:Core/Src/main.c ****   /* USER CODE END Callback 1 */
 195:Core/Src/main.c **** }
 196:Core/Src/main.c **** 
 197:Core/Src/main.c **** /**
 198:Core/Src/main.c ****   * @brief  This function is executed in case of error occurrence.
 199:Core/Src/main.c ****   * @retval None
 200:Core/Src/main.c ****   */
 201:Core/Src/main.c **** void Error_Handler(void)
  90              		.loc 1 201 6 view .LVU25
 202:Core/Src/main.c **** {
 203:Core/Src/main.c ****   /* USER CODE BEGIN Error_Handler_Debug */
 204:Core/Src/main.c ****   /* User can add his own implementation to report the HAL error return state */
 205:Core/Src/main.c ****   __disable_irq();
  91              		.loc 1 205 3 view .LVU26
  92              	.LBB17:
  93              	.LBI17:
  94              		.file 2 "Drivers/CMSIS/Include/cmsis_gcc.h"
   1:Drivers/CMSIS/Include/cmsis_gcc.h **** /**************************************************************************//**
   2:Drivers/CMSIS/Include/cmsis_gcc.h ****  * @file     cmsis_gcc.h
   3:Drivers/CMSIS/Include/cmsis_gcc.h ****  * @brief    CMSIS compiler GCC header file
   4:Drivers/CMSIS/Include/cmsis_gcc.h ****  * @version  V5.0.4
   5:Drivers/CMSIS/Include/cmsis_gcc.h ****  * @date     09. April 2018
   6:Drivers/CMSIS/Include/cmsis_gcc.h ****  ******************************************************************************/
   7:Drivers/CMSIS/Include/cmsis_gcc.h **** /*
   8:Drivers/CMSIS/Include/cmsis_gcc.h ****  * Copyright (c) 2009-2018 Arm Limited. All rights reserved.
   9:Drivers/CMSIS/Include/cmsis_gcc.h ****  *
  10:Drivers/CMSIS/Include/cmsis_gcc.h ****  * SPDX-License-Identifier: Apache-2.0
  11:Drivers/CMSIS/Include/cmsis_gcc.h ****  *
  12:Drivers/CMSIS/Include/cmsis_gcc.h ****  * Licensed under the Apache License, Version 2.0 (the License); you may
  13:Drivers/CMSIS/Include/cmsis_gcc.h ****  * not use this file except in compliance with the License.
  14:Drivers/CMSIS/Include/cmsis_gcc.h ****  * You may obtain a copy of the License at
  15:Drivers/CMSIS/Include/cmsis_gcc.h ****  *
  16:Drivers/CMSIS/Include/cmsis_gcc.h ****  * www.apache.org/licenses/LICENSE-2.0
  17:Drivers/CMSIS/Include/cmsis_gcc.h ****  *
  18:Drivers/CMSIS/Include/cmsis_gcc.h ****  * Unless required by applicable law or agreed to in writing, software
  19:Drivers/CMSIS/Include/cmsis_gcc.h ****  * distributed under the License is distributed on an AS IS BASIS, WITHOUT
  20:Drivers/CMSIS/Include/cmsis_gcc.h ****  * WARRANTIES OR CONDITIONS OF ANY KIND, either express or implied.
  21:Drivers/CMSIS/Include/cmsis_gcc.h ****  * See the License for the specific language governing permissions and
  22:Drivers/CMSIS/Include/cmsis_gcc.h ****  * limitations under the License.
  23:Drivers/CMSIS/Include/cmsis_gcc.h ****  */
  24:Drivers/CMSIS/Include/cmsis_gcc.h **** 
  25:Drivers/CMSIS/Include/cmsis_gcc.h **** #ifndef __CMSIS_GCC_H
  26:Drivers/CMSIS/Include/cmsis_gcc.h **** #define __CMSIS_GCC_H
  27:Drivers/CMSIS/Include/cmsis_gcc.h **** 
  28:Drivers/CMSIS/Include/cmsis_gcc.h **** /* ignore some GCC warnings */
  29:Drivers/CMSIS/Include/cmsis_gcc.h **** #pragma GCC diagnostic push
  30:Drivers/CMSIS/Include/cmsis_gcc.h **** #pragma GCC diagnostic ignored "-Wsign-conversion"
  31:Drivers/CMSIS/Include/cmsis_gcc.h **** #pragma GCC diagnostic ignored "-Wconversion"
  32:Drivers/CMSIS/Include/cmsis_gcc.h **** #pragma GCC diagnostic ignored "-Wunused-parameter"
  33:Drivers/CMSIS/Include/cmsis_gcc.h **** 
  34:Drivers/CMSIS/Include/cmsis_gcc.h **** /* Fallback for __has_builtin */
  35:Drivers/CMSIS/Include/cmsis_gcc.h **** #ifndef __has_builtin
ARM GAS  /tmp/cc2fxlJn.s 			page 7


  36:Drivers/CMSIS/Include/cmsis_gcc.h ****   #define __has_builtin(x) (0)
  37:Drivers/CMSIS/Include/cmsis_gcc.h **** #endif
  38:Drivers/CMSIS/Include/cmsis_gcc.h **** 
  39:Drivers/CMSIS/Include/cmsis_gcc.h **** /* CMSIS compiler specific defines */
  40:Drivers/CMSIS/Include/cmsis_gcc.h **** #ifndef   __ASM
  41:Drivers/CMSIS/Include/cmsis_gcc.h ****   #define __ASM                                  __asm
  42:Drivers/CMSIS/Include/cmsis_gcc.h **** #endif
  43:Drivers/CMSIS/Include/cmsis_gcc.h **** #ifndef   __INLINE
  44:Drivers/CMSIS/Include/cmsis_gcc.h ****   #define __INLINE                               inline
  45:Drivers/CMSIS/Include/cmsis_gcc.h **** #endif
  46:Drivers/CMSIS/Include/cmsis_gcc.h **** #ifndef   __STATIC_INLINE
  47:Drivers/CMSIS/Include/cmsis_gcc.h ****   #define __STATIC_INLINE                        static inline
  48:Drivers/CMSIS/Include/cmsis_gcc.h **** #endif
  49:Drivers/CMSIS/Include/cmsis_gcc.h **** #ifndef   __STATIC_FORCEINLINE                 
  50:Drivers/CMSIS/Include/cmsis_gcc.h ****   #define __STATIC_FORCEINLINE                   __attribute__((always_inline)) static inline
  51:Drivers/CMSIS/Include/cmsis_gcc.h **** #endif                                           
  52:Drivers/CMSIS/Include/cmsis_gcc.h **** #ifndef   __NO_RETURN
  53:Drivers/CMSIS/Include/cmsis_gcc.h ****   #define __NO_RETURN                            __attribute__((__noreturn__))
  54:Drivers/CMSIS/Include/cmsis_gcc.h **** #endif
  55:Drivers/CMSIS/Include/cmsis_gcc.h **** #ifndef   __USED
  56:Drivers/CMSIS/Include/cmsis_gcc.h ****   #define __USED                                 __attribute__((used))
  57:Drivers/CMSIS/Include/cmsis_gcc.h **** #endif
  58:Drivers/CMSIS/Include/cmsis_gcc.h **** #ifndef   __WEAK
  59:Drivers/CMSIS/Include/cmsis_gcc.h ****   #define __WEAK                                 __attribute__((weak))
  60:Drivers/CMSIS/Include/cmsis_gcc.h **** #endif
  61:Drivers/CMSIS/Include/cmsis_gcc.h **** #ifndef   __PACKED
  62:Drivers/CMSIS/Include/cmsis_gcc.h ****   #define __PACKED                               __attribute__((packed, aligned(1)))
  63:Drivers/CMSIS/Include/cmsis_gcc.h **** #endif
  64:Drivers/CMSIS/Include/cmsis_gcc.h **** #ifndef   __PACKED_STRUCT
  65:Drivers/CMSIS/Include/cmsis_gcc.h ****   #define __PACKED_STRUCT                        struct __attribute__((packed, aligned(1)))
  66:Drivers/CMSIS/Include/cmsis_gcc.h **** #endif
  67:Drivers/CMSIS/Include/cmsis_gcc.h **** #ifndef   __PACKED_UNION
  68:Drivers/CMSIS/Include/cmsis_gcc.h ****   #define __PACKED_UNION                         union __attribute__((packed, aligned(1)))
  69:Drivers/CMSIS/Include/cmsis_gcc.h **** #endif
  70:Drivers/CMSIS/Include/cmsis_gcc.h **** #ifndef   __UNALIGNED_UINT32        /* deprecated */
  71:Drivers/CMSIS/Include/cmsis_gcc.h ****   #pragma GCC diagnostic push
  72:Drivers/CMSIS/Include/cmsis_gcc.h ****   #pragma GCC diagnostic ignored "-Wpacked"
  73:Drivers/CMSIS/Include/cmsis_gcc.h ****   #pragma GCC diagnostic ignored "-Wattributes"
  74:Drivers/CMSIS/Include/cmsis_gcc.h ****   struct __attribute__((packed)) T_UINT32 { uint32_t v; };
  75:Drivers/CMSIS/Include/cmsis_gcc.h ****   #pragma GCC diagnostic pop
  76:Drivers/CMSIS/Include/cmsis_gcc.h ****   #define __UNALIGNED_UINT32(x)                  (((struct T_UINT32 *)(x))->v)
  77:Drivers/CMSIS/Include/cmsis_gcc.h **** #endif
  78:Drivers/CMSIS/Include/cmsis_gcc.h **** #ifndef   __UNALIGNED_UINT16_WRITE
  79:Drivers/CMSIS/Include/cmsis_gcc.h ****   #pragma GCC diagnostic push
  80:Drivers/CMSIS/Include/cmsis_gcc.h ****   #pragma GCC diagnostic ignored "-Wpacked"
  81:Drivers/CMSIS/Include/cmsis_gcc.h ****   #pragma GCC diagnostic ignored "-Wattributes"
  82:Drivers/CMSIS/Include/cmsis_gcc.h ****   __PACKED_STRUCT T_UINT16_WRITE { uint16_t v; };
  83:Drivers/CMSIS/Include/cmsis_gcc.h ****   #pragma GCC diagnostic pop
  84:Drivers/CMSIS/Include/cmsis_gcc.h ****   #define __UNALIGNED_UINT16_WRITE(addr, val)    (void)((((struct T_UINT16_WRITE *)(void *)(addr))-
  85:Drivers/CMSIS/Include/cmsis_gcc.h **** #endif
  86:Drivers/CMSIS/Include/cmsis_gcc.h **** #ifndef   __UNALIGNED_UINT16_READ
  87:Drivers/CMSIS/Include/cmsis_gcc.h ****   #pragma GCC diagnostic push
  88:Drivers/CMSIS/Include/cmsis_gcc.h ****   #pragma GCC diagnostic ignored "-Wpacked"
  89:Drivers/CMSIS/Include/cmsis_gcc.h ****   #pragma GCC diagnostic ignored "-Wattributes"
  90:Drivers/CMSIS/Include/cmsis_gcc.h ****   __PACKED_STRUCT T_UINT16_READ { uint16_t v; };
  91:Drivers/CMSIS/Include/cmsis_gcc.h ****   #pragma GCC diagnostic pop
  92:Drivers/CMSIS/Include/cmsis_gcc.h ****   #define __UNALIGNED_UINT16_READ(addr)          (((const struct T_UINT16_READ *)(const void *)(add
ARM GAS  /tmp/cc2fxlJn.s 			page 8


  93:Drivers/CMSIS/Include/cmsis_gcc.h **** #endif
  94:Drivers/CMSIS/Include/cmsis_gcc.h **** #ifndef   __UNALIGNED_UINT32_WRITE
  95:Drivers/CMSIS/Include/cmsis_gcc.h ****   #pragma GCC diagnostic push
  96:Drivers/CMSIS/Include/cmsis_gcc.h ****   #pragma GCC diagnostic ignored "-Wpacked"
  97:Drivers/CMSIS/Include/cmsis_gcc.h ****   #pragma GCC diagnostic ignored "-Wattributes"
  98:Drivers/CMSIS/Include/cmsis_gcc.h ****   __PACKED_STRUCT T_UINT32_WRITE { uint32_t v; };
  99:Drivers/CMSIS/Include/cmsis_gcc.h ****   #pragma GCC diagnostic pop
 100:Drivers/CMSIS/Include/cmsis_gcc.h ****   #define __UNALIGNED_UINT32_WRITE(addr, val)    (void)((((struct T_UINT32_WRITE *)(void *)(addr))-
 101:Drivers/CMSIS/Include/cmsis_gcc.h **** #endif
 102:Drivers/CMSIS/Include/cmsis_gcc.h **** #ifndef   __UNALIGNED_UINT32_READ
 103:Drivers/CMSIS/Include/cmsis_gcc.h ****   #pragma GCC diagnostic push
 104:Drivers/CMSIS/Include/cmsis_gcc.h ****   #pragma GCC diagnostic ignored "-Wpacked"
 105:Drivers/CMSIS/Include/cmsis_gcc.h ****   #pragma GCC diagnostic ignored "-Wattributes"
 106:Drivers/CMSIS/Include/cmsis_gcc.h ****   __PACKED_STRUCT T_UINT32_READ { uint32_t v; };
 107:Drivers/CMSIS/Include/cmsis_gcc.h ****   #pragma GCC diagnostic pop
 108:Drivers/CMSIS/Include/cmsis_gcc.h ****   #define __UNALIGNED_UINT32_READ(addr)          (((const struct T_UINT32_READ *)(const void *)(add
 109:Drivers/CMSIS/Include/cmsis_gcc.h **** #endif
 110:Drivers/CMSIS/Include/cmsis_gcc.h **** #ifndef   __ALIGNED
 111:Drivers/CMSIS/Include/cmsis_gcc.h ****   #define __ALIGNED(x)                           __attribute__((aligned(x)))
 112:Drivers/CMSIS/Include/cmsis_gcc.h **** #endif
 113:Drivers/CMSIS/Include/cmsis_gcc.h **** #ifndef   __RESTRICT
 114:Drivers/CMSIS/Include/cmsis_gcc.h ****   #define __RESTRICT                             __restrict
 115:Drivers/CMSIS/Include/cmsis_gcc.h **** #endif
 116:Drivers/CMSIS/Include/cmsis_gcc.h **** 
 117:Drivers/CMSIS/Include/cmsis_gcc.h **** 
 118:Drivers/CMSIS/Include/cmsis_gcc.h **** /* ###########################  Core Function Access  ########################### */
 119:Drivers/CMSIS/Include/cmsis_gcc.h **** /** \ingroup  CMSIS_Core_FunctionInterface
 120:Drivers/CMSIS/Include/cmsis_gcc.h ****     \defgroup CMSIS_Core_RegAccFunctions CMSIS Core Register Access Functions
 121:Drivers/CMSIS/Include/cmsis_gcc.h ****   @{
 122:Drivers/CMSIS/Include/cmsis_gcc.h ****  */
 123:Drivers/CMSIS/Include/cmsis_gcc.h **** 
 124:Drivers/CMSIS/Include/cmsis_gcc.h **** /**
 125:Drivers/CMSIS/Include/cmsis_gcc.h ****   \brief   Enable IRQ Interrupts
 126:Drivers/CMSIS/Include/cmsis_gcc.h ****   \details Enables IRQ interrupts by clearing the I-bit in the CPSR.
 127:Drivers/CMSIS/Include/cmsis_gcc.h ****            Can only be executed in Privileged modes.
 128:Drivers/CMSIS/Include/cmsis_gcc.h ****  */
 129:Drivers/CMSIS/Include/cmsis_gcc.h **** __STATIC_FORCEINLINE void __enable_irq(void)
 130:Drivers/CMSIS/Include/cmsis_gcc.h **** {
 131:Drivers/CMSIS/Include/cmsis_gcc.h ****   __ASM volatile ("cpsie i" : : : "memory");
 132:Drivers/CMSIS/Include/cmsis_gcc.h **** }
 133:Drivers/CMSIS/Include/cmsis_gcc.h **** 
 134:Drivers/CMSIS/Include/cmsis_gcc.h **** 
 135:Drivers/CMSIS/Include/cmsis_gcc.h **** /**
 136:Drivers/CMSIS/Include/cmsis_gcc.h ****   \brief   Disable IRQ Interrupts
 137:Drivers/CMSIS/Include/cmsis_gcc.h ****   \details Disables IRQ interrupts by setting the I-bit in the CPSR.
 138:Drivers/CMSIS/Include/cmsis_gcc.h ****            Can only be executed in Privileged modes.
 139:Drivers/CMSIS/Include/cmsis_gcc.h ****  */
 140:Drivers/CMSIS/Include/cmsis_gcc.h **** __STATIC_FORCEINLINE void __disable_irq(void)
  95              		.loc 2 140 27 view .LVU27
  96              	.LBB18:
 141:Drivers/CMSIS/Include/cmsis_gcc.h **** {
 142:Drivers/CMSIS/Include/cmsis_gcc.h ****   __ASM volatile ("cpsid i" : : : "memory");
  97              		.loc 2 142 3 view .LVU28
  98              		.syntax unified
  99              	@ 142 "Drivers/CMSIS/Include/cmsis_gcc.h" 1
 100 0044 72B6     		cpsid i
 101              	@ 0 "" 2
ARM GAS  /tmp/cc2fxlJn.s 			page 9


 102              		.thumb
 103              		.syntax unified
 104              	.L3:
 105              	.LBE18:
 106              	.LBE17:
 206:Core/Src/main.c ****   while (1)
 107              		.loc 1 206 3 view .LVU29
 207:Core/Src/main.c ****   {
 208:Core/Src/main.c ****   }
 108              		.loc 1 208 3 view .LVU30
 206:Core/Src/main.c ****   while (1)
 109              		.loc 1 206 9 view .LVU31
 110 0046 FEE7     		b	.L3
 111              	.L2:
 112              	.LBE16:
 152:Core/Src/main.c ****                               |RCC_CLOCKTYPE_PCLK1|RCC_CLOCKTYPE_PCLK2;
 113              		.loc 1 152 3 view .LVU32
 152:Core/Src/main.c ****                               |RCC_CLOCKTYPE_PCLK1|RCC_CLOCKTYPE_PCLK2;
 114              		.loc 1 152 31 is_stmt 0 view .LVU33
 115 0048 0F23     		movs	r3, #15
 154:Core/Src/main.c ****   RCC_ClkInitStruct.AHBCLKDivider = RCC_SYSCLK_DIV1;
 116              		.loc 1 154 34 view .LVU34
 117 004a CDE90534 		strd	r3, r4, [sp, #20]
 155:Core/Src/main.c ****   RCC_ClkInitStruct.APB1CLKDivider = RCC_HCLK_DIV2;
 118              		.loc 1 155 3 is_stmt 1 view .LVU35
 156:Core/Src/main.c ****   RCC_ClkInitStruct.APB2CLKDivider = RCC_HCLK_DIV1;
 119              		.loc 1 156 36 is_stmt 0 view .LVU36
 120 004e 4FF48063 		mov	r3, #1024
 155:Core/Src/main.c ****   RCC_ClkInitStruct.APB1CLKDivider = RCC_HCLK_DIV2;
 121              		.loc 1 155 35 view .LVU37
 122 0052 0790     		str	r0, [sp, #28]
 156:Core/Src/main.c ****   RCC_ClkInitStruct.APB2CLKDivider = RCC_HCLK_DIV1;
 123              		.loc 1 156 3 is_stmt 1 view .LVU38
 157:Core/Src/main.c **** 
 124              		.loc 1 157 36 is_stmt 0 view .LVU39
 125 0054 CDE90830 		strd	r3, r0, [sp, #32]
 159:Core/Src/main.c ****   {
 126              		.loc 1 159 3 is_stmt 1 view .LVU40
 159:Core/Src/main.c ****   {
 127              		.loc 1 159 7 is_stmt 0 view .LVU41
 128 0058 2146     		mov	r1, r4
 129 005a 05A8     		add	r0, sp, #20
 130 005c FFF7FEFF 		bl	HAL_RCC_ClockConfig
 131              	.LVL4:
 159:Core/Src/main.c ****   {
 132              		.loc 1 159 6 view .LVU42
 133 0060 08B1     		cbz	r0, .L4
 161:Core/Src/main.c ****   }
 134              		.loc 1 161 5 is_stmt 1 view .LVU43
 135              	.LBB19:
 136              	.LBI19:
 201:Core/Src/main.c **** {
 137              		.loc 1 201 6 view .LVU44
 205:Core/Src/main.c ****   while (1)
 138              		.loc 1 205 3 view .LVU45
 139              	.LBB20:
 140              	.LBI20:
ARM GAS  /tmp/cc2fxlJn.s 			page 10


 140:Drivers/CMSIS/Include/cmsis_gcc.h **** {
 141              		.loc 2 140 27 view .LVU46
 142              	.LBB21:
 143              		.loc 2 142 3 view .LVU47
 144              		.syntax unified
 145              	@ 142 "Drivers/CMSIS/Include/cmsis_gcc.h" 1
 146 0062 72B6     		cpsid i
 147              	@ 0 "" 2
 148              		.thumb
 149              		.syntax unified
 150              	.L5:
 151              	.LBE21:
 152              	.LBE20:
 206:Core/Src/main.c ****   {
 153              		.loc 1 206 3 view .LVU48
 154              		.loc 1 208 3 view .LVU49
 206:Core/Src/main.c ****   {
 155              		.loc 1 206 9 view .LVU50
 156 0064 FEE7     		b	.L5
 157              	.L4:
 158              	.LBE19:
 163:Core/Src/main.c ****   PeriphClkInit.AdcClockSelection = RCC_ADCPCLK2_DIV6;
 159              		.loc 1 163 3 view .LVU51
 163:Core/Src/main.c ****   PeriphClkInit.AdcClockSelection = RCC_ADCPCLK2_DIV6;
 160              		.loc 1 163 38 is_stmt 0 view .LVU52
 161 0066 1223     		movs	r3, #18
 162 0068 0193     		str	r3, [sp, #4]
 164:Core/Src/main.c ****   PeriphClkInit.UsbClockSelection = RCC_USBCLKSOURCE_PLL_DIV1_5;
 163              		.loc 1 164 3 is_stmt 1 view .LVU53
 164:Core/Src/main.c ****   PeriphClkInit.UsbClockSelection = RCC_USBCLKSOURCE_PLL_DIV1_5;
 164              		.loc 1 164 35 is_stmt 0 view .LVU54
 165 006a 4FF40043 		mov	r3, #32768
 165:Core/Src/main.c ****   if (HAL_RCCEx_PeriphCLKConfig(&PeriphClkInit) != HAL_OK)
 166              		.loc 1 165 35 view .LVU55
 167 006e CDE90330 		strd	r3, r0, [sp, #12]
 166:Core/Src/main.c ****   {
 168              		.loc 1 166 3 is_stmt 1 view .LVU56
 166:Core/Src/main.c ****   {
 169              		.loc 1 166 7 is_stmt 0 view .LVU57
 170 0072 01A8     		add	r0, sp, #4
 171 0074 FFF7FEFF 		bl	HAL_RCCEx_PeriphCLKConfig
 172              	.LVL5:
 166:Core/Src/main.c ****   {
 173              		.loc 1 166 6 view .LVU58
 174 0078 08B1     		cbz	r0, .L1
 168:Core/Src/main.c ****   }
 175              		.loc 1 168 5 is_stmt 1 view .LVU59
 176              	.LBB22:
 177              	.LBI22:
 201:Core/Src/main.c **** {
 178              		.loc 1 201 6 view .LVU60
 205:Core/Src/main.c ****   while (1)
 179              		.loc 1 205 3 view .LVU61
 180              	.LBB23:
 181              	.LBI23:
 140:Drivers/CMSIS/Include/cmsis_gcc.h **** {
 182              		.loc 2 140 27 view .LVU62
ARM GAS  /tmp/cc2fxlJn.s 			page 11


 183              	.LBB24:
 184              		.loc 2 142 3 view .LVU63
 185              		.syntax unified
 186              	@ 142 "Drivers/CMSIS/Include/cmsis_gcc.h" 1
 187 007a 72B6     		cpsid i
 188              	@ 0 "" 2
 189              		.thumb
 190              		.syntax unified
 191              	.L7:
 192              	.LBE24:
 193              	.LBE23:
 206:Core/Src/main.c ****   {
 194              		.loc 1 206 3 view .LVU64
 195              		.loc 1 208 3 view .LVU65
 206:Core/Src/main.c ****   {
 196              		.loc 1 206 9 view .LVU66
 197 007c FEE7     		b	.L7
 198              	.L1:
 199              	.LBE22:
 170:Core/Src/main.c **** 
 200              		.loc 1 170 1 is_stmt 0 view .LVU67
 201 007e 14B0     		add	sp, sp, #80
 202              		.cfi_def_cfa_offset 8
 203              		@ sp needed
 204 0080 10BD     		pop	{r4, pc}
 205              		.cfi_endproc
 206              	.LFE70:
 208              		.section	.text.startup.main,"ax",%progbits
 209              		.align	1
 210              		.global	main
 211              		.syntax unified
 212              		.thumb
 213              		.thumb_func
 215              	main:
 216              	.LFB69:
  73:Core/Src/main.c ****   /* USER CODE BEGIN 1 */
 217              		.loc 1 73 1 is_stmt 1 view -0
 218              		.cfi_startproc
 219              		@ Volatile: function does not return.
 220              		@ args = 0, pretend = 0, frame = 0
 221              		@ frame_needed = 0, uses_anonymous_args = 0
  81:Core/Src/main.c **** 
 222              		.loc 1 81 3 view .LVU69
  73:Core/Src/main.c ****   /* USER CODE BEGIN 1 */
 223              		.loc 1 73 1 is_stmt 0 view .LVU70
 224 0000 08B5     		push	{r3, lr}
 225              		.cfi_def_cfa_offset 8
 226              		.cfi_offset 3, -8
 227              		.cfi_offset 14, -4
  81:Core/Src/main.c **** 
 228              		.loc 1 81 3 view .LVU71
 229 0002 FFF7FEFF 		bl	HAL_Init
 230              	.LVL6:
  88:Core/Src/main.c **** 
 231              		.loc 1 88 3 is_stmt 1 view .LVU72
 232 0006 FFF7FEFF 		bl	SystemClock_Config
 233              	.LVL7:
ARM GAS  /tmp/cc2fxlJn.s 			page 12


  95:Core/Src/main.c ****   MX_DMA_Init();
 234              		.loc 1 95 3 view .LVU73
 235 000a FFF7FEFF 		bl	MX_GPIO_Init
 236              	.LVL8:
  96:Core/Src/main.c ****   MX_ADC1_Init();
 237              		.loc 1 96 3 view .LVU74
 238 000e FFF7FEFF 		bl	MX_DMA_Init
 239              	.LVL9:
  97:Core/Src/main.c ****   MX_I2C1_Init();
 240              		.loc 1 97 3 view .LVU75
 241 0012 FFF7FEFF 		bl	MX_ADC1_Init
 242              	.LVL10:
  98:Core/Src/main.c ****   MX_USART2_UART_Init();
 243              		.loc 1 98 3 view .LVU76
 244 0016 FFF7FEFF 		bl	MX_I2C1_Init
 245              	.LVL11:
  99:Core/Src/main.c ****   MX_USB_PCD_Init();
 246              		.loc 1 99 3 view .LVU77
 247 001a FFF7FEFF 		bl	MX_USART2_UART_Init
 248              	.LVL12:
 100:Core/Src/main.c ****   MX_TIM3_Init();
 249              		.loc 1 100 3 view .LVU78
 250 001e FFF7FEFF 		bl	MX_USB_PCD_Init
 251              	.LVL13:
 101:Core/Src/main.c ****   /* USER CODE BEGIN 2 */
 252              		.loc 1 101 3 view .LVU79
 253 0022 FFF7FEFF 		bl	MX_TIM3_Init
 254              	.LVL14:
 107:Core/Src/main.c ****   MX_FREERTOS_Init();
 255              		.loc 1 107 3 view .LVU80
 256 0026 FFF7FEFF 		bl	osKernelInitialize
 257              	.LVL15:
 108:Core/Src/main.c **** 
 258              		.loc 1 108 3 view .LVU81
 259 002a FFF7FEFF 		bl	MX_FREERTOS_Init
 260              	.LVL16:
 111:Core/Src/main.c **** 
 261              		.loc 1 111 3 view .LVU82
 262 002e FFF7FEFF 		bl	osKernelStart
 263              	.LVL17:
 264              	.L9:
 116:Core/Src/main.c ****   {
 265              		.loc 1 116 3 discriminator 1 view .LVU83
 121:Core/Src/main.c ****   /* USER CODE END 3 */
 266              		.loc 1 121 3 discriminator 1 view .LVU84
 116:Core/Src/main.c ****   {
 267              		.loc 1 116 9 discriminator 1 view .LVU85
 268 0032 FEE7     		b	.L9
 269              		.cfi_endproc
 270              	.LFE69:
 272              		.section	.text.HAL_TIM_PeriodElapsedCallback,"ax",%progbits
 273              		.align	1
 274              		.global	HAL_TIM_PeriodElapsedCallback
 275              		.syntax unified
 276              		.thumb
 277              		.thumb_func
 279              	HAL_TIM_PeriodElapsedCallback:
ARM GAS  /tmp/cc2fxlJn.s 			page 13


 280              	.LVL18:
 281              	.LFB71:
 185:Core/Src/main.c ****   /* USER CODE BEGIN Callback 0 */
 282              		.loc 1 185 1 view -0
 283              		.cfi_startproc
 284              		@ args = 0, pretend = 0, frame = 0
 285              		@ frame_needed = 0, uses_anonymous_args = 0
 286              		@ link register save eliminated.
 189:Core/Src/main.c ****     HAL_IncTick();
 287              		.loc 1 189 3 view .LVU87
 189:Core/Src/main.c ****     HAL_IncTick();
 288              		.loc 1 189 6 is_stmt 0 view .LVU88
 289 0000 0268     		ldr	r2, [r0]
 290 0002 034B     		ldr	r3, .L12
 291 0004 9A42     		cmp	r2, r3
 292 0006 01D1     		bne	.L10
 190:Core/Src/main.c ****   }
 293              		.loc 1 190 5 is_stmt 1 view .LVU89
 294 0008 FFF7FEBF 		b	HAL_IncTick
 295              	.LVL19:
 296              	.L10:
 195:Core/Src/main.c **** 
 297              		.loc 1 195 1 is_stmt 0 view .LVU90
 298 000c 7047     		bx	lr
 299              	.L13:
 300 000e 00BF     		.align	2
 301              	.L12:
 302 0010 00080040 		.word	1073743872
 303              		.cfi_endproc
 304              	.LFE71:
 306              		.section	.text.Error_Handler,"ax",%progbits
 307              		.align	1
 308              		.global	Error_Handler
 309              		.syntax unified
 310              		.thumb
 311              		.thumb_func
 313              	Error_Handler:
 314              	.LFB72:
 202:Core/Src/main.c ****   /* USER CODE BEGIN Error_Handler_Debug */
 315              		.loc 1 202 1 is_stmt 1 view -0
 316              		.cfi_startproc
 317              		@ Volatile: function does not return.
 318              		@ args = 0, pretend = 0, frame = 0
 319              		@ frame_needed = 0, uses_anonymous_args = 0
 320              		@ link register save eliminated.
 205:Core/Src/main.c ****   while (1)
 321              		.loc 1 205 3 view .LVU92
 322              	.LBB25:
 323              	.LBI25:
 140:Drivers/CMSIS/Include/cmsis_gcc.h **** {
 324              		.loc 2 140 27 view .LVU93
 325              	.LBB26:
 326              		.loc 2 142 3 view .LVU94
 327              		.syntax unified
 328              	@ 142 "Drivers/CMSIS/Include/cmsis_gcc.h" 1
 329 0000 72B6     		cpsid i
 330              	@ 0 "" 2
ARM GAS  /tmp/cc2fxlJn.s 			page 14


 331              		.thumb
 332              		.syntax unified
 333              	.L15:
 334              	.LBE26:
 335              	.LBE25:
 206:Core/Src/main.c ****   {
 336              		.loc 1 206 3 discriminator 1 view .LVU95
 337              		.loc 1 208 3 discriminator 1 view .LVU96
 206:Core/Src/main.c ****   {
 338              		.loc 1 206 9 discriminator 1 view .LVU97
 339 0002 FEE7     		b	.L15
 340              		.cfi_endproc
 341              	.LFE72:
 343              		.section	.text.assert_failed,"ax",%progbits
 344              		.align	1
 345              		.global	assert_failed
 346              		.syntax unified
 347              		.thumb
 348              		.thumb_func
 350              	assert_failed:
 351              	.LVL20:
 352              	.LFB73:
 209:Core/Src/main.c ****   /* USER CODE END Error_Handler_Debug */
 210:Core/Src/main.c **** }
 211:Core/Src/main.c **** 
 212:Core/Src/main.c **** #ifdef  USE_FULL_ASSERT
 213:Core/Src/main.c **** /**
 214:Core/Src/main.c ****   * @brief  Reports the name of the source file and the source line number
 215:Core/Src/main.c ****   *         where the assert_param error has occurred.
 216:Core/Src/main.c ****   * @param  file: pointer to the source file name
 217:Core/Src/main.c ****   * @param  line: assert_param error line source number
 218:Core/Src/main.c ****   * @retval None
 219:Core/Src/main.c ****   */
 220:Core/Src/main.c **** void assert_failed(uint8_t *file, uint32_t line)
 221:Core/Src/main.c **** {
 353              		.loc 1 221 1 view -0
 354              		.cfi_startproc
 355              		@ args = 0, pretend = 0, frame = 0
 356              		@ frame_needed = 0, uses_anonymous_args = 0
 357              		@ link register save eliminated.
 222:Core/Src/main.c ****   /* USER CODE BEGIN 6 */
 223:Core/Src/main.c ****   /* User can add his own implementation to report the file name and line number,
 224:Core/Src/main.c ****      ex: printf("Wrong parameters value: file %s on line %d\r\n", file, line) */
 225:Core/Src/main.c ****   /* USER CODE END 6 */
 226:Core/Src/main.c **** }
 358              		.loc 1 226 1 view .LVU99
 359 0000 7047     		bx	lr
 360              		.cfi_endproc
 361              	.LFE73:
 363              		.text
 364              	.Letext0:
 365              		.file 3 "/home/paul/.config/Code/User/globalStorage/bmd.stm32-for-vscode/@xpack-dev-tools/arm-none
 366              		.file 4 "/home/paul/.config/Code/User/globalStorage/bmd.stm32-for-vscode/@xpack-dev-tools/arm-none
 367              		.file 5 "Drivers/CMSIS/Device/ST/STM32F1xx/Include/stm32f103xb.h"
 368              		.file 6 "Drivers/STM32F1xx_HAL_Driver/Inc/stm32f1xx_hal_def.h"
 369              		.file 7 "Drivers/STM32F1xx_HAL_Driver/Inc/stm32f1xx_hal_rcc.h"
 370              		.file 8 "Drivers/STM32F1xx_HAL_Driver/Inc/stm32f1xx_hal_rcc_ex.h"
ARM GAS  /tmp/cc2fxlJn.s 			page 15


 371              		.file 9 "Drivers/STM32F1xx_HAL_Driver/Inc/stm32f1xx_hal_dma.h"
 372              		.file 10 "Drivers/STM32F1xx_HAL_Driver/Inc/stm32f1xx_hal_tim.h"
 373              		.file 11 "Middlewares/Third_Party/FreeRTOS/Source/CMSIS_RTOS_V2/cmsis_os2.h"
 374              		.file 12 "Drivers/STM32F1xx_HAL_Driver/Inc/stm32f1xx_hal.h"
 375              		.file 13 "Core/Inc/tim.h"
 376              		.file 14 "Core/Inc/usb.h"
 377              		.file 15 "Core/Inc/usart.h"
 378              		.file 16 "Core/Inc/i2c.h"
 379              		.file 17 "Core/Inc/adc.h"
 380              		.file 18 "Core/Inc/dma.h"
 381              		.file 19 "Core/Inc/gpio.h"
 382              		.file 20 "<built-in>"
ARM GAS  /tmp/cc2fxlJn.s 			page 16

