ARM GAS  /tmp/ccofPfel.s 			page 1


   1              		.cpu cortex-m3
   2              		.arch armv7-m
   3              		.fpu softvfp
   4              		.eabi_attribute 20, 1
   5              		.eabi_attribute 21, 1
   6              		.eabi_attribute 23, 3
   7              		.eabi_attribute 24, 1
   8              		.eabi_attribute 25, 1
   9              		.eabi_attribute 26, 1
  10              		.eabi_attribute 30, 4
  11              		.eabi_attribute 34, 1
  12              		.eabi_attribute 18, 4
  13              		.file	"timers.c"
  14              		.text
  15              	.Ltext0:
  16              		.cfi_sections	.debug_frame
  17              		.file 1 "Middlewares/Third_Party/FreeRTOS/Source/timers.c"
  18              		.section	.text.prvInsertTimerInActiveList,"ax",%progbits
  19              		.align	1
  20              		.syntax unified
  21              		.thumb
  22              		.thumb_func
  24              	prvInsertTimerInActiveList:
  25              	.LVL0:
  26              	.LFB18:
   1:Middlewares/Third_Party/FreeRTOS/Source/timers.c **** /*
   2:Middlewares/Third_Party/FreeRTOS/Source/timers.c ****  * FreeRTOS Kernel V10.0.1
   3:Middlewares/Third_Party/FreeRTOS/Source/timers.c ****  * Copyright (C) 2017 Amazon.com, Inc. or its affiliates.  All Rights Reserved.
   4:Middlewares/Third_Party/FreeRTOS/Source/timers.c ****  *
   5:Middlewares/Third_Party/FreeRTOS/Source/timers.c ****  * Permission is hereby granted, free of charge, to any person obtaining a copy of
   6:Middlewares/Third_Party/FreeRTOS/Source/timers.c ****  * this software and associated documentation files (the "Software"), to deal in
   7:Middlewares/Third_Party/FreeRTOS/Source/timers.c ****  * the Software without restriction, including without limitation the rights to
   8:Middlewares/Third_Party/FreeRTOS/Source/timers.c ****  * use, copy, modify, merge, publish, distribute, sublicense, and/or sell copies of
   9:Middlewares/Third_Party/FreeRTOS/Source/timers.c ****  * the Software, and to permit persons to whom the Software is furnished to do so,
  10:Middlewares/Third_Party/FreeRTOS/Source/timers.c ****  * subject to the following conditions:
  11:Middlewares/Third_Party/FreeRTOS/Source/timers.c ****  *
  12:Middlewares/Third_Party/FreeRTOS/Source/timers.c ****  * The above copyright notice and this permission notice shall be included in all
  13:Middlewares/Third_Party/FreeRTOS/Source/timers.c ****  * copies or substantial portions of the Software.
  14:Middlewares/Third_Party/FreeRTOS/Source/timers.c ****  *
  15:Middlewares/Third_Party/FreeRTOS/Source/timers.c ****  * THE SOFTWARE IS PROVIDED "AS IS", WITHOUT WARRANTY OF ANY KIND, EXPRESS OR
  16:Middlewares/Third_Party/FreeRTOS/Source/timers.c ****  * IMPLIED, INCLUDING BUT NOT LIMITED TO THE WARRANTIES OF MERCHANTABILITY, FITNESS
  17:Middlewares/Third_Party/FreeRTOS/Source/timers.c ****  * FOR A PARTICULAR PURPOSE AND NONINFRINGEMENT. IN NO EVENT SHALL THE AUTHORS OR
  18:Middlewares/Third_Party/FreeRTOS/Source/timers.c ****  * COPYRIGHT HOLDERS BE LIABLE FOR ANY CLAIM, DAMAGES OR OTHER LIABILITY, WHETHER
  19:Middlewares/Third_Party/FreeRTOS/Source/timers.c ****  * IN AN ACTION OF CONTRACT, TORT OR OTHERWISE, ARISING FROM, OUT OF OR IN
  20:Middlewares/Third_Party/FreeRTOS/Source/timers.c ****  * CONNECTION WITH THE SOFTWARE OR THE USE OR OTHER DEALINGS IN THE SOFTWARE.
  21:Middlewares/Third_Party/FreeRTOS/Source/timers.c ****  *
  22:Middlewares/Third_Party/FreeRTOS/Source/timers.c ****  * http://www.FreeRTOS.org
  23:Middlewares/Third_Party/FreeRTOS/Source/timers.c ****  * http://aws.amazon.com/freertos
  24:Middlewares/Third_Party/FreeRTOS/Source/timers.c ****  *
  25:Middlewares/Third_Party/FreeRTOS/Source/timers.c ****  * 1 tab == 4 spaces!
  26:Middlewares/Third_Party/FreeRTOS/Source/timers.c ****  */
  27:Middlewares/Third_Party/FreeRTOS/Source/timers.c **** 
  28:Middlewares/Third_Party/FreeRTOS/Source/timers.c **** /* Standard includes. */
  29:Middlewares/Third_Party/FreeRTOS/Source/timers.c **** #include <stdlib.h>
  30:Middlewares/Third_Party/FreeRTOS/Source/timers.c **** 
  31:Middlewares/Third_Party/FreeRTOS/Source/timers.c **** /* Defining MPU_WRAPPERS_INCLUDED_FROM_API_FILE prevents task.h from redefining
  32:Middlewares/Third_Party/FreeRTOS/Source/timers.c **** all the API functions to use the MPU wrappers.  That should only be done when
ARM GAS  /tmp/ccofPfel.s 			page 2


  33:Middlewares/Third_Party/FreeRTOS/Source/timers.c **** task.h is included from an application file. */
  34:Middlewares/Third_Party/FreeRTOS/Source/timers.c **** #define MPU_WRAPPERS_INCLUDED_FROM_API_FILE
  35:Middlewares/Third_Party/FreeRTOS/Source/timers.c **** 
  36:Middlewares/Third_Party/FreeRTOS/Source/timers.c **** #include "FreeRTOS.h"
  37:Middlewares/Third_Party/FreeRTOS/Source/timers.c **** #include "task.h"
  38:Middlewares/Third_Party/FreeRTOS/Source/timers.c **** #include "queue.h"
  39:Middlewares/Third_Party/FreeRTOS/Source/timers.c **** #include "timers.h"
  40:Middlewares/Third_Party/FreeRTOS/Source/timers.c **** 
  41:Middlewares/Third_Party/FreeRTOS/Source/timers.c **** #if ( INCLUDE_xTimerPendFunctionCall == 1 ) && ( configUSE_TIMERS == 0 )
  42:Middlewares/Third_Party/FreeRTOS/Source/timers.c **** 	#error configUSE_TIMERS must be set to 1 to make the xTimerPendFunctionCall() function available.
  43:Middlewares/Third_Party/FreeRTOS/Source/timers.c **** #endif
  44:Middlewares/Third_Party/FreeRTOS/Source/timers.c **** 
  45:Middlewares/Third_Party/FreeRTOS/Source/timers.c **** /* Lint e961 and e750 are suppressed as a MISRA exception justified because the
  46:Middlewares/Third_Party/FreeRTOS/Source/timers.c **** MPU ports require MPU_WRAPPERS_INCLUDED_FROM_API_FILE to be defined for the
  47:Middlewares/Third_Party/FreeRTOS/Source/timers.c **** header files above, but not in this file, in order to generate the correct
  48:Middlewares/Third_Party/FreeRTOS/Source/timers.c **** privileged Vs unprivileged linkage and placement. */
  49:Middlewares/Third_Party/FreeRTOS/Source/timers.c **** #undef MPU_WRAPPERS_INCLUDED_FROM_API_FILE /*lint !e961 !e750. */
  50:Middlewares/Third_Party/FreeRTOS/Source/timers.c **** 
  51:Middlewares/Third_Party/FreeRTOS/Source/timers.c **** 
  52:Middlewares/Third_Party/FreeRTOS/Source/timers.c **** /* This entire source file will be skipped if the application is not configured
  53:Middlewares/Third_Party/FreeRTOS/Source/timers.c **** to include software timer functionality.  This #if is closed at the very bottom
  54:Middlewares/Third_Party/FreeRTOS/Source/timers.c **** of this file.  If you want to include software timer functionality then ensure
  55:Middlewares/Third_Party/FreeRTOS/Source/timers.c **** configUSE_TIMERS is set to 1 in FreeRTOSConfig.h. */
  56:Middlewares/Third_Party/FreeRTOS/Source/timers.c **** #if ( configUSE_TIMERS == 1 )
  57:Middlewares/Third_Party/FreeRTOS/Source/timers.c **** 
  58:Middlewares/Third_Party/FreeRTOS/Source/timers.c **** /* Misc definitions. */
  59:Middlewares/Third_Party/FreeRTOS/Source/timers.c **** #define tmrNO_DELAY		( TickType_t ) 0U
  60:Middlewares/Third_Party/FreeRTOS/Source/timers.c **** 
  61:Middlewares/Third_Party/FreeRTOS/Source/timers.c **** /* The name assigned to the timer service task.  This can be overridden by
  62:Middlewares/Third_Party/FreeRTOS/Source/timers.c **** defining trmTIMER_SERVICE_TASK_NAME in FreeRTOSConfig.h. */
  63:Middlewares/Third_Party/FreeRTOS/Source/timers.c **** #ifndef configTIMER_SERVICE_TASK_NAME
  64:Middlewares/Third_Party/FreeRTOS/Source/timers.c **** 	#define configTIMER_SERVICE_TASK_NAME "Tmr Svc"
  65:Middlewares/Third_Party/FreeRTOS/Source/timers.c **** #endif
  66:Middlewares/Third_Party/FreeRTOS/Source/timers.c **** 
  67:Middlewares/Third_Party/FreeRTOS/Source/timers.c **** /* The definition of the timers themselves. */
  68:Middlewares/Third_Party/FreeRTOS/Source/timers.c **** typedef struct tmrTimerControl
  69:Middlewares/Third_Party/FreeRTOS/Source/timers.c **** {
  70:Middlewares/Third_Party/FreeRTOS/Source/timers.c **** 	const char				*pcTimerName;		/*<< Text name.  This is not used by the kernel, it is included simpl
  71:Middlewares/Third_Party/FreeRTOS/Source/timers.c **** 	ListItem_t				xTimerListItem;		/*<< Standard linked list item as used by all kernel features for e
  72:Middlewares/Third_Party/FreeRTOS/Source/timers.c **** 	TickType_t				xTimerPeriodInTicks;/*<< How quickly and often the timer expires. */
  73:Middlewares/Third_Party/FreeRTOS/Source/timers.c **** 	UBaseType_t				uxAutoReload;		/*<< Set to pdTRUE if the timer should be automatically restarted on
  74:Middlewares/Third_Party/FreeRTOS/Source/timers.c **** 	void 					*pvTimerID;			/*<< An ID to identify the timer.  This allows the timer to be identified 
  75:Middlewares/Third_Party/FreeRTOS/Source/timers.c **** 	TimerCallbackFunction_t	pxCallbackFunction;	/*<< The function that will be called when the timer e
  76:Middlewares/Third_Party/FreeRTOS/Source/timers.c **** 	#if( configUSE_TRACE_FACILITY == 1 )
  77:Middlewares/Third_Party/FreeRTOS/Source/timers.c **** 		UBaseType_t			uxTimerNumber;		/*<< An ID assigned by trace tools such as FreeRTOS+Trace */
  78:Middlewares/Third_Party/FreeRTOS/Source/timers.c **** 	#endif
  79:Middlewares/Third_Party/FreeRTOS/Source/timers.c **** 
  80:Middlewares/Third_Party/FreeRTOS/Source/timers.c **** 	#if( ( configSUPPORT_STATIC_ALLOCATION == 1 ) && ( configSUPPORT_DYNAMIC_ALLOCATION == 1 ) )
  81:Middlewares/Third_Party/FreeRTOS/Source/timers.c **** 		uint8_t 			ucStaticallyAllocated; /*<< Set to pdTRUE if the timer was created statically so no at
  82:Middlewares/Third_Party/FreeRTOS/Source/timers.c **** 	#endif
  83:Middlewares/Third_Party/FreeRTOS/Source/timers.c **** } xTIMER;
  84:Middlewares/Third_Party/FreeRTOS/Source/timers.c **** 
  85:Middlewares/Third_Party/FreeRTOS/Source/timers.c **** /* The old xTIMER name is maintained above then typedefed to the new Timer_t
  86:Middlewares/Third_Party/FreeRTOS/Source/timers.c **** name below to enable the use of older kernel aware debuggers. */
  87:Middlewares/Third_Party/FreeRTOS/Source/timers.c **** typedef xTIMER Timer_t;
  88:Middlewares/Third_Party/FreeRTOS/Source/timers.c **** 
  89:Middlewares/Third_Party/FreeRTOS/Source/timers.c **** /* The definition of messages that can be sent and received on the timer queue.
ARM GAS  /tmp/ccofPfel.s 			page 3


  90:Middlewares/Third_Party/FreeRTOS/Source/timers.c **** Two types of message can be queued - messages that manipulate a software timer,
  91:Middlewares/Third_Party/FreeRTOS/Source/timers.c **** and messages that request the execution of a non-timer related callback.  The
  92:Middlewares/Third_Party/FreeRTOS/Source/timers.c **** two message types are defined in two separate structures, xTimerParametersType
  93:Middlewares/Third_Party/FreeRTOS/Source/timers.c **** and xCallbackParametersType respectively. */
  94:Middlewares/Third_Party/FreeRTOS/Source/timers.c **** typedef struct tmrTimerParameters
  95:Middlewares/Third_Party/FreeRTOS/Source/timers.c **** {
  96:Middlewares/Third_Party/FreeRTOS/Source/timers.c **** 	TickType_t			xMessageValue;		/*<< An optional value used by a subset of commands, for example, whe
  97:Middlewares/Third_Party/FreeRTOS/Source/timers.c **** 	Timer_t *			pxTimer;			/*<< The timer to which the command will be applied. */
  98:Middlewares/Third_Party/FreeRTOS/Source/timers.c **** } TimerParameter_t;
  99:Middlewares/Third_Party/FreeRTOS/Source/timers.c **** 
 100:Middlewares/Third_Party/FreeRTOS/Source/timers.c **** 
 101:Middlewares/Third_Party/FreeRTOS/Source/timers.c **** typedef struct tmrCallbackParameters
 102:Middlewares/Third_Party/FreeRTOS/Source/timers.c **** {
 103:Middlewares/Third_Party/FreeRTOS/Source/timers.c **** 	PendedFunction_t	pxCallbackFunction;	/* << The callback function to execute. */
 104:Middlewares/Third_Party/FreeRTOS/Source/timers.c **** 	void *pvParameter1;						/* << The value that will be used as the callback functions first paramet
 105:Middlewares/Third_Party/FreeRTOS/Source/timers.c **** 	uint32_t ulParameter2;					/* << The value that will be used as the callback functions second para
 106:Middlewares/Third_Party/FreeRTOS/Source/timers.c **** } CallbackParameters_t;
 107:Middlewares/Third_Party/FreeRTOS/Source/timers.c **** 
 108:Middlewares/Third_Party/FreeRTOS/Source/timers.c **** /* The structure that contains the two message types, along with an identifier
 109:Middlewares/Third_Party/FreeRTOS/Source/timers.c **** that is used to determine which message type is valid. */
 110:Middlewares/Third_Party/FreeRTOS/Source/timers.c **** typedef struct tmrTimerQueueMessage
 111:Middlewares/Third_Party/FreeRTOS/Source/timers.c **** {
 112:Middlewares/Third_Party/FreeRTOS/Source/timers.c **** 	BaseType_t			xMessageID;			/*<< The command being sent to the timer service task. */
 113:Middlewares/Third_Party/FreeRTOS/Source/timers.c **** 	union
 114:Middlewares/Third_Party/FreeRTOS/Source/timers.c **** 	{
 115:Middlewares/Third_Party/FreeRTOS/Source/timers.c **** 		TimerParameter_t xTimerParameters;
 116:Middlewares/Third_Party/FreeRTOS/Source/timers.c **** 
 117:Middlewares/Third_Party/FreeRTOS/Source/timers.c **** 		/* Don't include xCallbackParameters if it is not going to be used as
 118:Middlewares/Third_Party/FreeRTOS/Source/timers.c **** 		it makes the structure (and therefore the timer queue) larger. */
 119:Middlewares/Third_Party/FreeRTOS/Source/timers.c **** 		#if ( INCLUDE_xTimerPendFunctionCall == 1 )
 120:Middlewares/Third_Party/FreeRTOS/Source/timers.c **** 			CallbackParameters_t xCallbackParameters;
 121:Middlewares/Third_Party/FreeRTOS/Source/timers.c **** 		#endif /* INCLUDE_xTimerPendFunctionCall */
 122:Middlewares/Third_Party/FreeRTOS/Source/timers.c **** 	} u;
 123:Middlewares/Third_Party/FreeRTOS/Source/timers.c **** } DaemonTaskMessage_t;
 124:Middlewares/Third_Party/FreeRTOS/Source/timers.c **** 
 125:Middlewares/Third_Party/FreeRTOS/Source/timers.c **** /*lint -save -e956 A manual analysis and inspection has been used to determine
 126:Middlewares/Third_Party/FreeRTOS/Source/timers.c **** which static variables must be declared volatile. */
 127:Middlewares/Third_Party/FreeRTOS/Source/timers.c **** 
 128:Middlewares/Third_Party/FreeRTOS/Source/timers.c **** /* The list in which active timers are stored.  Timers are referenced in expire
 129:Middlewares/Third_Party/FreeRTOS/Source/timers.c **** time order, with the nearest expiry time at the front of the list.  Only the
 130:Middlewares/Third_Party/FreeRTOS/Source/timers.c **** timer service task is allowed to access these lists. */
 131:Middlewares/Third_Party/FreeRTOS/Source/timers.c **** PRIVILEGED_DATA static List_t xActiveTimerList1 = {0};
 132:Middlewares/Third_Party/FreeRTOS/Source/timers.c **** PRIVILEGED_DATA static List_t xActiveTimerList2 = {0};
 133:Middlewares/Third_Party/FreeRTOS/Source/timers.c **** PRIVILEGED_DATA static List_t *pxCurrentTimerList = NULL;
 134:Middlewares/Third_Party/FreeRTOS/Source/timers.c **** PRIVILEGED_DATA static List_t *pxOverflowTimerList = NULL;
 135:Middlewares/Third_Party/FreeRTOS/Source/timers.c **** 
 136:Middlewares/Third_Party/FreeRTOS/Source/timers.c **** /* A queue that is used to send commands to the timer service task. */
 137:Middlewares/Third_Party/FreeRTOS/Source/timers.c **** PRIVILEGED_DATA static QueueHandle_t xTimerQueue = NULL;
 138:Middlewares/Third_Party/FreeRTOS/Source/timers.c **** PRIVILEGED_DATA static TaskHandle_t xTimerTaskHandle = NULL;
 139:Middlewares/Third_Party/FreeRTOS/Source/timers.c **** 
 140:Middlewares/Third_Party/FreeRTOS/Source/timers.c **** /*lint -restore */
 141:Middlewares/Third_Party/FreeRTOS/Source/timers.c **** 
 142:Middlewares/Third_Party/FreeRTOS/Source/timers.c **** /*-----------------------------------------------------------*/
 143:Middlewares/Third_Party/FreeRTOS/Source/timers.c **** 
 144:Middlewares/Third_Party/FreeRTOS/Source/timers.c **** #if( configSUPPORT_STATIC_ALLOCATION == 1 )
 145:Middlewares/Third_Party/FreeRTOS/Source/timers.c **** 
 146:Middlewares/Third_Party/FreeRTOS/Source/timers.c **** 	/* If static allocation is supported then the application must provide the
ARM GAS  /tmp/ccofPfel.s 			page 4


 147:Middlewares/Third_Party/FreeRTOS/Source/timers.c **** 	following callback function - which enables the application to optionally
 148:Middlewares/Third_Party/FreeRTOS/Source/timers.c **** 	provide the memory that will be used by the timer task as the task's stack
 149:Middlewares/Third_Party/FreeRTOS/Source/timers.c **** 	and TCB. */
 150:Middlewares/Third_Party/FreeRTOS/Source/timers.c **** 	extern void vApplicationGetTimerTaskMemory( StaticTask_t **ppxTimerTaskTCBBuffer, StackType_t **pp
 151:Middlewares/Third_Party/FreeRTOS/Source/timers.c **** 
 152:Middlewares/Third_Party/FreeRTOS/Source/timers.c **** #endif
 153:Middlewares/Third_Party/FreeRTOS/Source/timers.c **** 
 154:Middlewares/Third_Party/FreeRTOS/Source/timers.c **** /*
 155:Middlewares/Third_Party/FreeRTOS/Source/timers.c ****  * Initialise the infrastructure used by the timer service task if it has not
 156:Middlewares/Third_Party/FreeRTOS/Source/timers.c ****  * been initialised already.
 157:Middlewares/Third_Party/FreeRTOS/Source/timers.c ****  */
 158:Middlewares/Third_Party/FreeRTOS/Source/timers.c **** static void prvCheckForValidListAndQueue( void ) PRIVILEGED_FUNCTION;
 159:Middlewares/Third_Party/FreeRTOS/Source/timers.c **** 
 160:Middlewares/Third_Party/FreeRTOS/Source/timers.c **** /*
 161:Middlewares/Third_Party/FreeRTOS/Source/timers.c ****  * The timer service task (daemon).  Timer functionality is controlled by this
 162:Middlewares/Third_Party/FreeRTOS/Source/timers.c ****  * task.  Other tasks communicate with the timer service task using the
 163:Middlewares/Third_Party/FreeRTOS/Source/timers.c ****  * xTimerQueue queue.
 164:Middlewares/Third_Party/FreeRTOS/Source/timers.c ****  */
 165:Middlewares/Third_Party/FreeRTOS/Source/timers.c **** static void prvTimerTask( void *pvParameters ) PRIVILEGED_FUNCTION;
 166:Middlewares/Third_Party/FreeRTOS/Source/timers.c **** 
 167:Middlewares/Third_Party/FreeRTOS/Source/timers.c **** /*
 168:Middlewares/Third_Party/FreeRTOS/Source/timers.c ****  * Called by the timer service task to interpret and process a command it
 169:Middlewares/Third_Party/FreeRTOS/Source/timers.c ****  * received on the timer queue.
 170:Middlewares/Third_Party/FreeRTOS/Source/timers.c ****  */
 171:Middlewares/Third_Party/FreeRTOS/Source/timers.c **** static void prvProcessReceivedCommands( void ) PRIVILEGED_FUNCTION;
 172:Middlewares/Third_Party/FreeRTOS/Source/timers.c **** 
 173:Middlewares/Third_Party/FreeRTOS/Source/timers.c **** /*
 174:Middlewares/Third_Party/FreeRTOS/Source/timers.c ****  * Insert the timer into either xActiveTimerList1, or xActiveTimerList2,
 175:Middlewares/Third_Party/FreeRTOS/Source/timers.c ****  * depending on if the expire time causes a timer counter overflow.
 176:Middlewares/Third_Party/FreeRTOS/Source/timers.c ****  */
 177:Middlewares/Third_Party/FreeRTOS/Source/timers.c **** static BaseType_t prvInsertTimerInActiveList( Timer_t * const pxTimer, const TickType_t xNextExpiry
 178:Middlewares/Third_Party/FreeRTOS/Source/timers.c **** 
 179:Middlewares/Third_Party/FreeRTOS/Source/timers.c **** /*
 180:Middlewares/Third_Party/FreeRTOS/Source/timers.c ****  * An active timer has reached its expire time.  Reload the timer if it is an
 181:Middlewares/Third_Party/FreeRTOS/Source/timers.c ****  * auto reload timer, then call its callback.
 182:Middlewares/Third_Party/FreeRTOS/Source/timers.c ****  */
 183:Middlewares/Third_Party/FreeRTOS/Source/timers.c **** static void prvProcessExpiredTimer( const TickType_t xNextExpireTime, const TickType_t xTimeNow ) P
 184:Middlewares/Third_Party/FreeRTOS/Source/timers.c **** 
 185:Middlewares/Third_Party/FreeRTOS/Source/timers.c **** /*
 186:Middlewares/Third_Party/FreeRTOS/Source/timers.c ****  * The tick count has overflowed.  Switch the timer lists after ensuring the
 187:Middlewares/Third_Party/FreeRTOS/Source/timers.c ****  * current timer list does not still reference some timers.
 188:Middlewares/Third_Party/FreeRTOS/Source/timers.c ****  */
 189:Middlewares/Third_Party/FreeRTOS/Source/timers.c **** static void prvSwitchTimerLists( void ) PRIVILEGED_FUNCTION;
 190:Middlewares/Third_Party/FreeRTOS/Source/timers.c **** 
 191:Middlewares/Third_Party/FreeRTOS/Source/timers.c **** /*
 192:Middlewares/Third_Party/FreeRTOS/Source/timers.c ****  * Obtain the current tick count, setting *pxTimerListsWereSwitched to pdTRUE
 193:Middlewares/Third_Party/FreeRTOS/Source/timers.c ****  * if a tick count overflow occurred since prvSampleTimeNow() was last called.
 194:Middlewares/Third_Party/FreeRTOS/Source/timers.c ****  */
 195:Middlewares/Third_Party/FreeRTOS/Source/timers.c **** static TickType_t prvSampleTimeNow( BaseType_t * const pxTimerListsWereSwitched ) PRIVILEGED_FUNCTI
 196:Middlewares/Third_Party/FreeRTOS/Source/timers.c **** 
 197:Middlewares/Third_Party/FreeRTOS/Source/timers.c **** /*
 198:Middlewares/Third_Party/FreeRTOS/Source/timers.c ****  * If the timer list contains any active timers then return the expire time of
 199:Middlewares/Third_Party/FreeRTOS/Source/timers.c ****  * the timer that will expire first and set *pxListWasEmpty to false.  If the
 200:Middlewares/Third_Party/FreeRTOS/Source/timers.c ****  * timer list does not contain any timers then return 0 and set *pxListWasEmpty
 201:Middlewares/Third_Party/FreeRTOS/Source/timers.c ****  * to pdTRUE.
 202:Middlewares/Third_Party/FreeRTOS/Source/timers.c ****  */
 203:Middlewares/Third_Party/FreeRTOS/Source/timers.c **** static TickType_t prvGetNextExpireTime( BaseType_t * const pxListWasEmpty ) PRIVILEGED_FUNCTION;
ARM GAS  /tmp/ccofPfel.s 			page 5


 204:Middlewares/Third_Party/FreeRTOS/Source/timers.c **** 
 205:Middlewares/Third_Party/FreeRTOS/Source/timers.c **** /*
 206:Middlewares/Third_Party/FreeRTOS/Source/timers.c ****  * If a timer has expired, process it.  Otherwise, block the timer service task
 207:Middlewares/Third_Party/FreeRTOS/Source/timers.c ****  * until either a timer does expire or a command is received.
 208:Middlewares/Third_Party/FreeRTOS/Source/timers.c ****  */
 209:Middlewares/Third_Party/FreeRTOS/Source/timers.c **** static void prvProcessTimerOrBlockTask( const TickType_t xNextExpireTime, BaseType_t xListWasEmpty 
 210:Middlewares/Third_Party/FreeRTOS/Source/timers.c **** 
 211:Middlewares/Third_Party/FreeRTOS/Source/timers.c **** /*
 212:Middlewares/Third_Party/FreeRTOS/Source/timers.c ****  * Called after a Timer_t structure has been allocated either statically or
 213:Middlewares/Third_Party/FreeRTOS/Source/timers.c ****  * dynamically to fill in the structure's members.
 214:Middlewares/Third_Party/FreeRTOS/Source/timers.c ****  */
 215:Middlewares/Third_Party/FreeRTOS/Source/timers.c **** static void prvInitialiseNewTimer(	const char * const pcTimerName,			/*lint !e971 Unqualified char 
 216:Middlewares/Third_Party/FreeRTOS/Source/timers.c **** 									const TickType_t xTimerPeriodInTicks,
 217:Middlewares/Third_Party/FreeRTOS/Source/timers.c **** 									const UBaseType_t uxAutoReload,
 218:Middlewares/Third_Party/FreeRTOS/Source/timers.c **** 									void * const pvTimerID,
 219:Middlewares/Third_Party/FreeRTOS/Source/timers.c **** 									TimerCallbackFunction_t pxCallbackFunction,
 220:Middlewares/Third_Party/FreeRTOS/Source/timers.c **** 									Timer_t *pxNewTimer ) PRIVILEGED_FUNCTION;
 221:Middlewares/Third_Party/FreeRTOS/Source/timers.c **** /*-----------------------------------------------------------*/
 222:Middlewares/Third_Party/FreeRTOS/Source/timers.c **** 
 223:Middlewares/Third_Party/FreeRTOS/Source/timers.c **** BaseType_t xTimerCreateTimerTask( void )
 224:Middlewares/Third_Party/FreeRTOS/Source/timers.c **** {
 225:Middlewares/Third_Party/FreeRTOS/Source/timers.c **** BaseType_t xReturn = pdFAIL;
 226:Middlewares/Third_Party/FreeRTOS/Source/timers.c **** 
 227:Middlewares/Third_Party/FreeRTOS/Source/timers.c **** 	/* This function is called when the scheduler is started if
 228:Middlewares/Third_Party/FreeRTOS/Source/timers.c **** 	configUSE_TIMERS is set to 1.  Check that the infrastructure used by the
 229:Middlewares/Third_Party/FreeRTOS/Source/timers.c **** 	timer service task has been created/initialised.  If timers have already
 230:Middlewares/Third_Party/FreeRTOS/Source/timers.c **** 	been created then the initialisation will already have been performed. */
 231:Middlewares/Third_Party/FreeRTOS/Source/timers.c **** 	prvCheckForValidListAndQueue();
 232:Middlewares/Third_Party/FreeRTOS/Source/timers.c **** 
 233:Middlewares/Third_Party/FreeRTOS/Source/timers.c **** 	if( xTimerQueue != NULL )
 234:Middlewares/Third_Party/FreeRTOS/Source/timers.c **** 	{
 235:Middlewares/Third_Party/FreeRTOS/Source/timers.c **** 		#if( configSUPPORT_STATIC_ALLOCATION == 1 )
 236:Middlewares/Third_Party/FreeRTOS/Source/timers.c **** 		{
 237:Middlewares/Third_Party/FreeRTOS/Source/timers.c **** 			StaticTask_t *pxTimerTaskTCBBuffer = NULL;
 238:Middlewares/Third_Party/FreeRTOS/Source/timers.c **** 			StackType_t *pxTimerTaskStackBuffer = NULL;
 239:Middlewares/Third_Party/FreeRTOS/Source/timers.c **** 			uint32_t ulTimerTaskStackSize;
 240:Middlewares/Third_Party/FreeRTOS/Source/timers.c **** 
 241:Middlewares/Third_Party/FreeRTOS/Source/timers.c **** 			vApplicationGetTimerTaskMemory( &pxTimerTaskTCBBuffer, &pxTimerTaskStackBuffer, &ulTimerTaskStac
 242:Middlewares/Third_Party/FreeRTOS/Source/timers.c **** 			xTimerTaskHandle = xTaskCreateStatic(	prvTimerTask,
 243:Middlewares/Third_Party/FreeRTOS/Source/timers.c **** 													configTIMER_SERVICE_TASK_NAME,
 244:Middlewares/Third_Party/FreeRTOS/Source/timers.c **** 													ulTimerTaskStackSize,
 245:Middlewares/Third_Party/FreeRTOS/Source/timers.c **** 													NULL,
 246:Middlewares/Third_Party/FreeRTOS/Source/timers.c **** 													( ( UBaseType_t ) configTIMER_TASK_PRIORITY ) | portPRIVILEGE_BIT,
 247:Middlewares/Third_Party/FreeRTOS/Source/timers.c **** 													pxTimerTaskStackBuffer,
 248:Middlewares/Third_Party/FreeRTOS/Source/timers.c **** 													pxTimerTaskTCBBuffer );
 249:Middlewares/Third_Party/FreeRTOS/Source/timers.c **** 
 250:Middlewares/Third_Party/FreeRTOS/Source/timers.c **** 			if( xTimerTaskHandle != NULL )
 251:Middlewares/Third_Party/FreeRTOS/Source/timers.c **** 			{
 252:Middlewares/Third_Party/FreeRTOS/Source/timers.c **** 				xReturn = pdPASS;
 253:Middlewares/Third_Party/FreeRTOS/Source/timers.c **** 			}
 254:Middlewares/Third_Party/FreeRTOS/Source/timers.c **** 		}
 255:Middlewares/Third_Party/FreeRTOS/Source/timers.c **** 		#else
 256:Middlewares/Third_Party/FreeRTOS/Source/timers.c **** 		{
 257:Middlewares/Third_Party/FreeRTOS/Source/timers.c **** 			xReturn = xTaskCreate(	prvTimerTask,
 258:Middlewares/Third_Party/FreeRTOS/Source/timers.c **** 									configTIMER_SERVICE_TASK_NAME,
 259:Middlewares/Third_Party/FreeRTOS/Source/timers.c **** 									configTIMER_TASK_STACK_DEPTH,
 260:Middlewares/Third_Party/FreeRTOS/Source/timers.c **** 									NULL,
ARM GAS  /tmp/ccofPfel.s 			page 6


 261:Middlewares/Third_Party/FreeRTOS/Source/timers.c **** 									( ( UBaseType_t ) configTIMER_TASK_PRIORITY ) | portPRIVILEGE_BIT,
 262:Middlewares/Third_Party/FreeRTOS/Source/timers.c **** 									&xTimerTaskHandle );
 263:Middlewares/Third_Party/FreeRTOS/Source/timers.c **** 		}
 264:Middlewares/Third_Party/FreeRTOS/Source/timers.c **** 		#endif /* configSUPPORT_STATIC_ALLOCATION */
 265:Middlewares/Third_Party/FreeRTOS/Source/timers.c **** 	}
 266:Middlewares/Third_Party/FreeRTOS/Source/timers.c **** 	else
 267:Middlewares/Third_Party/FreeRTOS/Source/timers.c **** 	{
 268:Middlewares/Third_Party/FreeRTOS/Source/timers.c **** 		mtCOVERAGE_TEST_MARKER();
 269:Middlewares/Third_Party/FreeRTOS/Source/timers.c **** 	}
 270:Middlewares/Third_Party/FreeRTOS/Source/timers.c **** 
 271:Middlewares/Third_Party/FreeRTOS/Source/timers.c **** 	configASSERT( xReturn );
 272:Middlewares/Third_Party/FreeRTOS/Source/timers.c **** 	return xReturn;
 273:Middlewares/Third_Party/FreeRTOS/Source/timers.c **** }
 274:Middlewares/Third_Party/FreeRTOS/Source/timers.c **** /*-----------------------------------------------------------*/
 275:Middlewares/Third_Party/FreeRTOS/Source/timers.c **** 
 276:Middlewares/Third_Party/FreeRTOS/Source/timers.c **** #if( configSUPPORT_DYNAMIC_ALLOCATION == 1 )
 277:Middlewares/Third_Party/FreeRTOS/Source/timers.c **** 
 278:Middlewares/Third_Party/FreeRTOS/Source/timers.c **** 	TimerHandle_t xTimerCreate(	const char * const pcTimerName,			/*lint !e971 Unqualified char types 
 279:Middlewares/Third_Party/FreeRTOS/Source/timers.c **** 								const TickType_t xTimerPeriodInTicks,
 280:Middlewares/Third_Party/FreeRTOS/Source/timers.c **** 								const UBaseType_t uxAutoReload,
 281:Middlewares/Third_Party/FreeRTOS/Source/timers.c **** 								void * const pvTimerID,
 282:Middlewares/Third_Party/FreeRTOS/Source/timers.c **** 								TimerCallbackFunction_t pxCallbackFunction )
 283:Middlewares/Third_Party/FreeRTOS/Source/timers.c **** 	{
 284:Middlewares/Third_Party/FreeRTOS/Source/timers.c **** 	Timer_t *pxNewTimer;
 285:Middlewares/Third_Party/FreeRTOS/Source/timers.c **** 
 286:Middlewares/Third_Party/FreeRTOS/Source/timers.c **** 		pxNewTimer = ( Timer_t * ) pvPortMalloc( sizeof( Timer_t ) );
 287:Middlewares/Third_Party/FreeRTOS/Source/timers.c **** 
 288:Middlewares/Third_Party/FreeRTOS/Source/timers.c **** 		if( pxNewTimer != NULL )
 289:Middlewares/Third_Party/FreeRTOS/Source/timers.c **** 		{
 290:Middlewares/Third_Party/FreeRTOS/Source/timers.c **** 			prvInitialiseNewTimer( pcTimerName, xTimerPeriodInTicks, uxAutoReload, pvTimerID, pxCallbackFunc
 291:Middlewares/Third_Party/FreeRTOS/Source/timers.c **** 
 292:Middlewares/Third_Party/FreeRTOS/Source/timers.c **** 			#if( configSUPPORT_STATIC_ALLOCATION == 1 )
 293:Middlewares/Third_Party/FreeRTOS/Source/timers.c **** 			{
 294:Middlewares/Third_Party/FreeRTOS/Source/timers.c **** 				/* Timers can be created statically or dynamically, so note this
 295:Middlewares/Third_Party/FreeRTOS/Source/timers.c **** 				timer was created dynamically in case the timer is later
 296:Middlewares/Third_Party/FreeRTOS/Source/timers.c **** 				deleted. */
 297:Middlewares/Third_Party/FreeRTOS/Source/timers.c **** 				pxNewTimer->ucStaticallyAllocated = pdFALSE;
 298:Middlewares/Third_Party/FreeRTOS/Source/timers.c **** 			}
 299:Middlewares/Third_Party/FreeRTOS/Source/timers.c **** 			#endif /* configSUPPORT_STATIC_ALLOCATION */
 300:Middlewares/Third_Party/FreeRTOS/Source/timers.c **** 		}
 301:Middlewares/Third_Party/FreeRTOS/Source/timers.c **** 
 302:Middlewares/Third_Party/FreeRTOS/Source/timers.c **** 		return pxNewTimer;
 303:Middlewares/Third_Party/FreeRTOS/Source/timers.c **** 	}
 304:Middlewares/Third_Party/FreeRTOS/Source/timers.c **** 
 305:Middlewares/Third_Party/FreeRTOS/Source/timers.c **** #endif /* configSUPPORT_STATIC_ALLOCATION */
 306:Middlewares/Third_Party/FreeRTOS/Source/timers.c **** /*-----------------------------------------------------------*/
 307:Middlewares/Third_Party/FreeRTOS/Source/timers.c **** 
 308:Middlewares/Third_Party/FreeRTOS/Source/timers.c **** #if( configSUPPORT_STATIC_ALLOCATION == 1 )
 309:Middlewares/Third_Party/FreeRTOS/Source/timers.c **** 
 310:Middlewares/Third_Party/FreeRTOS/Source/timers.c **** 	TimerHandle_t xTimerCreateStatic(	const char * const pcTimerName,		/*lint !e971 Unqualified char t
 311:Middlewares/Third_Party/FreeRTOS/Source/timers.c **** 										const TickType_t xTimerPeriodInTicks,
 312:Middlewares/Third_Party/FreeRTOS/Source/timers.c **** 										const UBaseType_t uxAutoReload,
 313:Middlewares/Third_Party/FreeRTOS/Source/timers.c **** 										void * const pvTimerID,
 314:Middlewares/Third_Party/FreeRTOS/Source/timers.c **** 										TimerCallbackFunction_t pxCallbackFunction,
 315:Middlewares/Third_Party/FreeRTOS/Source/timers.c **** 										StaticTimer_t *pxTimerBuffer )
 316:Middlewares/Third_Party/FreeRTOS/Source/timers.c **** 	{
 317:Middlewares/Third_Party/FreeRTOS/Source/timers.c **** 	Timer_t *pxNewTimer;
ARM GAS  /tmp/ccofPfel.s 			page 7


 318:Middlewares/Third_Party/FreeRTOS/Source/timers.c **** 
 319:Middlewares/Third_Party/FreeRTOS/Source/timers.c **** 		#if( configASSERT_DEFINED == 1 )
 320:Middlewares/Third_Party/FreeRTOS/Source/timers.c **** 		{
 321:Middlewares/Third_Party/FreeRTOS/Source/timers.c **** 			/* Sanity check that the size of the structure used to declare a
 322:Middlewares/Third_Party/FreeRTOS/Source/timers.c **** 			variable of type StaticTimer_t equals the size of the real timer
 323:Middlewares/Third_Party/FreeRTOS/Source/timers.c **** 			structure. */
 324:Middlewares/Third_Party/FreeRTOS/Source/timers.c **** 			volatile size_t xSize = sizeof( StaticTimer_t );
 325:Middlewares/Third_Party/FreeRTOS/Source/timers.c **** 			configASSERT( xSize == sizeof( Timer_t ) );
 326:Middlewares/Third_Party/FreeRTOS/Source/timers.c **** 		}
 327:Middlewares/Third_Party/FreeRTOS/Source/timers.c **** 		#endif /* configASSERT_DEFINED */
 328:Middlewares/Third_Party/FreeRTOS/Source/timers.c **** 
 329:Middlewares/Third_Party/FreeRTOS/Source/timers.c **** 		/* A pointer to a StaticTimer_t structure MUST be provided, use it. */
 330:Middlewares/Third_Party/FreeRTOS/Source/timers.c **** 		configASSERT( pxTimerBuffer );
 331:Middlewares/Third_Party/FreeRTOS/Source/timers.c **** 		pxNewTimer = ( Timer_t * ) pxTimerBuffer; /*lint !e740 Unusual cast is ok as the structures are d
 332:Middlewares/Third_Party/FreeRTOS/Source/timers.c **** 
 333:Middlewares/Third_Party/FreeRTOS/Source/timers.c **** 		if( pxNewTimer != NULL )
 334:Middlewares/Third_Party/FreeRTOS/Source/timers.c **** 		{
 335:Middlewares/Third_Party/FreeRTOS/Source/timers.c **** 			prvInitialiseNewTimer( pcTimerName, xTimerPeriodInTicks, uxAutoReload, pvTimerID, pxCallbackFunc
 336:Middlewares/Third_Party/FreeRTOS/Source/timers.c **** 
 337:Middlewares/Third_Party/FreeRTOS/Source/timers.c **** 			#if( configSUPPORT_DYNAMIC_ALLOCATION == 1 )
 338:Middlewares/Third_Party/FreeRTOS/Source/timers.c **** 			{
 339:Middlewares/Third_Party/FreeRTOS/Source/timers.c **** 				/* Timers can be created statically or dynamically so note this
 340:Middlewares/Third_Party/FreeRTOS/Source/timers.c **** 				timer was created statically in case it is later deleted. */
 341:Middlewares/Third_Party/FreeRTOS/Source/timers.c **** 				pxNewTimer->ucStaticallyAllocated = pdTRUE;
 342:Middlewares/Third_Party/FreeRTOS/Source/timers.c **** 			}
 343:Middlewares/Third_Party/FreeRTOS/Source/timers.c **** 			#endif /* configSUPPORT_DYNAMIC_ALLOCATION */
 344:Middlewares/Third_Party/FreeRTOS/Source/timers.c **** 		}
 345:Middlewares/Third_Party/FreeRTOS/Source/timers.c **** 
 346:Middlewares/Third_Party/FreeRTOS/Source/timers.c **** 		return pxNewTimer;
 347:Middlewares/Third_Party/FreeRTOS/Source/timers.c **** 	}
 348:Middlewares/Third_Party/FreeRTOS/Source/timers.c **** 
 349:Middlewares/Third_Party/FreeRTOS/Source/timers.c **** #endif /* configSUPPORT_STATIC_ALLOCATION */
 350:Middlewares/Third_Party/FreeRTOS/Source/timers.c **** /*-----------------------------------------------------------*/
 351:Middlewares/Third_Party/FreeRTOS/Source/timers.c **** 
 352:Middlewares/Third_Party/FreeRTOS/Source/timers.c **** static void prvInitialiseNewTimer(	const char * const pcTimerName,			/*lint !e971 Unqualified char 
 353:Middlewares/Third_Party/FreeRTOS/Source/timers.c **** 									const TickType_t xTimerPeriodInTicks,
 354:Middlewares/Third_Party/FreeRTOS/Source/timers.c **** 									const UBaseType_t uxAutoReload,
 355:Middlewares/Third_Party/FreeRTOS/Source/timers.c **** 									void * const pvTimerID,
 356:Middlewares/Third_Party/FreeRTOS/Source/timers.c **** 									TimerCallbackFunction_t pxCallbackFunction,
 357:Middlewares/Third_Party/FreeRTOS/Source/timers.c **** 									Timer_t *pxNewTimer )
 358:Middlewares/Third_Party/FreeRTOS/Source/timers.c **** {
 359:Middlewares/Third_Party/FreeRTOS/Source/timers.c **** 	/* 0 is not a valid value for xTimerPeriodInTicks. */
 360:Middlewares/Third_Party/FreeRTOS/Source/timers.c **** 	configASSERT( ( xTimerPeriodInTicks > 0 ) );
 361:Middlewares/Third_Party/FreeRTOS/Source/timers.c **** 
 362:Middlewares/Third_Party/FreeRTOS/Source/timers.c **** 	if( pxNewTimer != NULL )
 363:Middlewares/Third_Party/FreeRTOS/Source/timers.c **** 	{
 364:Middlewares/Third_Party/FreeRTOS/Source/timers.c **** 		/* Ensure the infrastructure used by the timer service task has been
 365:Middlewares/Third_Party/FreeRTOS/Source/timers.c **** 		created/initialised. */
 366:Middlewares/Third_Party/FreeRTOS/Source/timers.c **** 		prvCheckForValidListAndQueue();
 367:Middlewares/Third_Party/FreeRTOS/Source/timers.c **** 
 368:Middlewares/Third_Party/FreeRTOS/Source/timers.c **** 		/* Initialise the timer structure members using the function
 369:Middlewares/Third_Party/FreeRTOS/Source/timers.c **** 		parameters. */
 370:Middlewares/Third_Party/FreeRTOS/Source/timers.c **** 		pxNewTimer->pcTimerName = pcTimerName;
 371:Middlewares/Third_Party/FreeRTOS/Source/timers.c **** 		pxNewTimer->xTimerPeriodInTicks = xTimerPeriodInTicks;
 372:Middlewares/Third_Party/FreeRTOS/Source/timers.c **** 		pxNewTimer->uxAutoReload = uxAutoReload;
 373:Middlewares/Third_Party/FreeRTOS/Source/timers.c **** 		pxNewTimer->pvTimerID = pvTimerID;
 374:Middlewares/Third_Party/FreeRTOS/Source/timers.c **** 		pxNewTimer->pxCallbackFunction = pxCallbackFunction;
ARM GAS  /tmp/ccofPfel.s 			page 8


 375:Middlewares/Third_Party/FreeRTOS/Source/timers.c **** 		vListInitialiseItem( &( pxNewTimer->xTimerListItem ) );
 376:Middlewares/Third_Party/FreeRTOS/Source/timers.c **** 		traceTIMER_CREATE( pxNewTimer );
 377:Middlewares/Third_Party/FreeRTOS/Source/timers.c **** 	}
 378:Middlewares/Third_Party/FreeRTOS/Source/timers.c **** }
 379:Middlewares/Third_Party/FreeRTOS/Source/timers.c **** /*-----------------------------------------------------------*/
 380:Middlewares/Third_Party/FreeRTOS/Source/timers.c **** 
 381:Middlewares/Third_Party/FreeRTOS/Source/timers.c **** BaseType_t xTimerGenericCommand( TimerHandle_t xTimer, const BaseType_t xCommandID, const TickType_
 382:Middlewares/Third_Party/FreeRTOS/Source/timers.c **** {
 383:Middlewares/Third_Party/FreeRTOS/Source/timers.c **** BaseType_t xReturn = pdFAIL;
 384:Middlewares/Third_Party/FreeRTOS/Source/timers.c **** DaemonTaskMessage_t xMessage;
 385:Middlewares/Third_Party/FreeRTOS/Source/timers.c **** 
 386:Middlewares/Third_Party/FreeRTOS/Source/timers.c **** 	configASSERT( xTimer );
 387:Middlewares/Third_Party/FreeRTOS/Source/timers.c **** 
 388:Middlewares/Third_Party/FreeRTOS/Source/timers.c **** 	/* Send a message to the timer service task to perform a particular action
 389:Middlewares/Third_Party/FreeRTOS/Source/timers.c **** 	on a particular timer definition. */
 390:Middlewares/Third_Party/FreeRTOS/Source/timers.c **** 	if( xTimerQueue != NULL )
 391:Middlewares/Third_Party/FreeRTOS/Source/timers.c **** 	{
 392:Middlewares/Third_Party/FreeRTOS/Source/timers.c **** 		/* Send a command to the timer service task to start the xTimer timer. */
 393:Middlewares/Third_Party/FreeRTOS/Source/timers.c **** 		xMessage.xMessageID = xCommandID;
 394:Middlewares/Third_Party/FreeRTOS/Source/timers.c **** 		xMessage.u.xTimerParameters.xMessageValue = xOptionalValue;
 395:Middlewares/Third_Party/FreeRTOS/Source/timers.c **** 		xMessage.u.xTimerParameters.pxTimer = ( Timer_t * ) xTimer;
 396:Middlewares/Third_Party/FreeRTOS/Source/timers.c **** 
 397:Middlewares/Third_Party/FreeRTOS/Source/timers.c **** 		if( xCommandID < tmrFIRST_FROM_ISR_COMMAND )
 398:Middlewares/Third_Party/FreeRTOS/Source/timers.c **** 		{
 399:Middlewares/Third_Party/FreeRTOS/Source/timers.c **** 			if( xTaskGetSchedulerState() == taskSCHEDULER_RUNNING )
 400:Middlewares/Third_Party/FreeRTOS/Source/timers.c **** 			{
 401:Middlewares/Third_Party/FreeRTOS/Source/timers.c **** 				xReturn = xQueueSendToBack( xTimerQueue, &xMessage, xTicksToWait );
 402:Middlewares/Third_Party/FreeRTOS/Source/timers.c **** 			}
 403:Middlewares/Third_Party/FreeRTOS/Source/timers.c **** 			else
 404:Middlewares/Third_Party/FreeRTOS/Source/timers.c **** 			{
 405:Middlewares/Third_Party/FreeRTOS/Source/timers.c **** 				xReturn = xQueueSendToBack( xTimerQueue, &xMessage, tmrNO_DELAY );
 406:Middlewares/Third_Party/FreeRTOS/Source/timers.c **** 			}
 407:Middlewares/Third_Party/FreeRTOS/Source/timers.c **** 		}
 408:Middlewares/Third_Party/FreeRTOS/Source/timers.c **** 		else
 409:Middlewares/Third_Party/FreeRTOS/Source/timers.c **** 		{
 410:Middlewares/Third_Party/FreeRTOS/Source/timers.c **** 			xReturn = xQueueSendToBackFromISR( xTimerQueue, &xMessage, pxHigherPriorityTaskWoken );
 411:Middlewares/Third_Party/FreeRTOS/Source/timers.c **** 		}
 412:Middlewares/Third_Party/FreeRTOS/Source/timers.c **** 
 413:Middlewares/Third_Party/FreeRTOS/Source/timers.c **** 		traceTIMER_COMMAND_SEND( xTimer, xCommandID, xOptionalValue, xReturn );
 414:Middlewares/Third_Party/FreeRTOS/Source/timers.c **** 	}
 415:Middlewares/Third_Party/FreeRTOS/Source/timers.c **** 	else
 416:Middlewares/Third_Party/FreeRTOS/Source/timers.c **** 	{
 417:Middlewares/Third_Party/FreeRTOS/Source/timers.c **** 		mtCOVERAGE_TEST_MARKER();
 418:Middlewares/Third_Party/FreeRTOS/Source/timers.c **** 	}
 419:Middlewares/Third_Party/FreeRTOS/Source/timers.c **** 
 420:Middlewares/Third_Party/FreeRTOS/Source/timers.c **** 	return xReturn;
 421:Middlewares/Third_Party/FreeRTOS/Source/timers.c **** }
 422:Middlewares/Third_Party/FreeRTOS/Source/timers.c **** /*-----------------------------------------------------------*/
 423:Middlewares/Third_Party/FreeRTOS/Source/timers.c **** 
 424:Middlewares/Third_Party/FreeRTOS/Source/timers.c **** TaskHandle_t xTimerGetTimerDaemonTaskHandle( void )
 425:Middlewares/Third_Party/FreeRTOS/Source/timers.c **** {
 426:Middlewares/Third_Party/FreeRTOS/Source/timers.c **** 	/* If xTimerGetTimerDaemonTaskHandle() is called before the scheduler has been
 427:Middlewares/Third_Party/FreeRTOS/Source/timers.c **** 	started, then xTimerTaskHandle will be NULL. */
 428:Middlewares/Third_Party/FreeRTOS/Source/timers.c **** 	configASSERT( ( xTimerTaskHandle != NULL ) );
 429:Middlewares/Third_Party/FreeRTOS/Source/timers.c **** 	return xTimerTaskHandle;
 430:Middlewares/Third_Party/FreeRTOS/Source/timers.c **** }
 431:Middlewares/Third_Party/FreeRTOS/Source/timers.c **** /*-----------------------------------------------------------*/
ARM GAS  /tmp/ccofPfel.s 			page 9


 432:Middlewares/Third_Party/FreeRTOS/Source/timers.c **** 
 433:Middlewares/Third_Party/FreeRTOS/Source/timers.c **** TickType_t xTimerGetPeriod( TimerHandle_t xTimer )
 434:Middlewares/Third_Party/FreeRTOS/Source/timers.c **** {
 435:Middlewares/Third_Party/FreeRTOS/Source/timers.c **** Timer_t *pxTimer = ( Timer_t * ) xTimer;
 436:Middlewares/Third_Party/FreeRTOS/Source/timers.c **** 
 437:Middlewares/Third_Party/FreeRTOS/Source/timers.c **** 	configASSERT( xTimer );
 438:Middlewares/Third_Party/FreeRTOS/Source/timers.c **** 	return pxTimer->xTimerPeriodInTicks;
 439:Middlewares/Third_Party/FreeRTOS/Source/timers.c **** }
 440:Middlewares/Third_Party/FreeRTOS/Source/timers.c **** /*-----------------------------------------------------------*/
 441:Middlewares/Third_Party/FreeRTOS/Source/timers.c **** 
 442:Middlewares/Third_Party/FreeRTOS/Source/timers.c **** TickType_t xTimerGetExpiryTime( TimerHandle_t xTimer )
 443:Middlewares/Third_Party/FreeRTOS/Source/timers.c **** {
 444:Middlewares/Third_Party/FreeRTOS/Source/timers.c **** Timer_t * pxTimer = ( Timer_t * ) xTimer;
 445:Middlewares/Third_Party/FreeRTOS/Source/timers.c **** TickType_t xReturn;
 446:Middlewares/Third_Party/FreeRTOS/Source/timers.c **** 
 447:Middlewares/Third_Party/FreeRTOS/Source/timers.c **** 	configASSERT( xTimer );
 448:Middlewares/Third_Party/FreeRTOS/Source/timers.c **** 	xReturn = listGET_LIST_ITEM_VALUE( &( pxTimer->xTimerListItem ) );
 449:Middlewares/Third_Party/FreeRTOS/Source/timers.c **** 	return xReturn;
 450:Middlewares/Third_Party/FreeRTOS/Source/timers.c **** }
 451:Middlewares/Third_Party/FreeRTOS/Source/timers.c **** /*-----------------------------------------------------------*/
 452:Middlewares/Third_Party/FreeRTOS/Source/timers.c **** 
 453:Middlewares/Third_Party/FreeRTOS/Source/timers.c **** const char * pcTimerGetName( TimerHandle_t xTimer ) /*lint !e971 Unqualified char types are allowed
 454:Middlewares/Third_Party/FreeRTOS/Source/timers.c **** {
 455:Middlewares/Third_Party/FreeRTOS/Source/timers.c **** Timer_t *pxTimer = ( Timer_t * ) xTimer;
 456:Middlewares/Third_Party/FreeRTOS/Source/timers.c **** 
 457:Middlewares/Third_Party/FreeRTOS/Source/timers.c **** 	configASSERT( xTimer );
 458:Middlewares/Third_Party/FreeRTOS/Source/timers.c **** 	return pxTimer->pcTimerName;
 459:Middlewares/Third_Party/FreeRTOS/Source/timers.c **** }
 460:Middlewares/Third_Party/FreeRTOS/Source/timers.c **** /*-----------------------------------------------------------*/
 461:Middlewares/Third_Party/FreeRTOS/Source/timers.c **** 
 462:Middlewares/Third_Party/FreeRTOS/Source/timers.c **** static void prvProcessExpiredTimer( const TickType_t xNextExpireTime, const TickType_t xTimeNow )
 463:Middlewares/Third_Party/FreeRTOS/Source/timers.c **** {
 464:Middlewares/Third_Party/FreeRTOS/Source/timers.c **** BaseType_t xResult;
 465:Middlewares/Third_Party/FreeRTOS/Source/timers.c **** Timer_t * const pxTimer = ( Timer_t * ) listGET_OWNER_OF_HEAD_ENTRY( pxCurrentTimerList );
 466:Middlewares/Third_Party/FreeRTOS/Source/timers.c **** 
 467:Middlewares/Third_Party/FreeRTOS/Source/timers.c **** 	/* Remove the timer from the list of active timers.  A check has already
 468:Middlewares/Third_Party/FreeRTOS/Source/timers.c **** 	been performed to ensure the list is not empty. */
 469:Middlewares/Third_Party/FreeRTOS/Source/timers.c **** 	( void ) uxListRemove( &( pxTimer->xTimerListItem ) );
 470:Middlewares/Third_Party/FreeRTOS/Source/timers.c **** 	traceTIMER_EXPIRED( pxTimer );
 471:Middlewares/Third_Party/FreeRTOS/Source/timers.c **** 
 472:Middlewares/Third_Party/FreeRTOS/Source/timers.c **** 	/* If the timer is an auto reload timer then calculate the next
 473:Middlewares/Third_Party/FreeRTOS/Source/timers.c **** 	expiry time and re-insert the timer in the list of active timers. */
 474:Middlewares/Third_Party/FreeRTOS/Source/timers.c **** 	if( pxTimer->uxAutoReload == ( UBaseType_t ) pdTRUE )
 475:Middlewares/Third_Party/FreeRTOS/Source/timers.c **** 	{
 476:Middlewares/Third_Party/FreeRTOS/Source/timers.c **** 		/* The timer is inserted into a list using a time relative to anything
 477:Middlewares/Third_Party/FreeRTOS/Source/timers.c **** 		other than the current time.  It will therefore be inserted into the
 478:Middlewares/Third_Party/FreeRTOS/Source/timers.c **** 		correct list relative to the time this task thinks it is now. */
 479:Middlewares/Third_Party/FreeRTOS/Source/timers.c **** 		if( prvInsertTimerInActiveList( pxTimer, ( xNextExpireTime + pxTimer->xTimerPeriodInTicks ), xTim
 480:Middlewares/Third_Party/FreeRTOS/Source/timers.c **** 		{
 481:Middlewares/Third_Party/FreeRTOS/Source/timers.c **** 			/* The timer expired before it was added to the active timer
 482:Middlewares/Third_Party/FreeRTOS/Source/timers.c **** 			list.  Reload it now.  */
 483:Middlewares/Third_Party/FreeRTOS/Source/timers.c **** 			xResult = xTimerGenericCommand( pxTimer, tmrCOMMAND_START_DONT_TRACE, xNextExpireTime, NULL, tmr
 484:Middlewares/Third_Party/FreeRTOS/Source/timers.c **** 			configASSERT( xResult );
 485:Middlewares/Third_Party/FreeRTOS/Source/timers.c **** 			( void ) xResult;
 486:Middlewares/Third_Party/FreeRTOS/Source/timers.c **** 		}
 487:Middlewares/Third_Party/FreeRTOS/Source/timers.c **** 		else
 488:Middlewares/Third_Party/FreeRTOS/Source/timers.c **** 		{
ARM GAS  /tmp/ccofPfel.s 			page 10


 489:Middlewares/Third_Party/FreeRTOS/Source/timers.c **** 			mtCOVERAGE_TEST_MARKER();
 490:Middlewares/Third_Party/FreeRTOS/Source/timers.c **** 		}
 491:Middlewares/Third_Party/FreeRTOS/Source/timers.c **** 	}
 492:Middlewares/Third_Party/FreeRTOS/Source/timers.c **** 	else
 493:Middlewares/Third_Party/FreeRTOS/Source/timers.c **** 	{
 494:Middlewares/Third_Party/FreeRTOS/Source/timers.c **** 		mtCOVERAGE_TEST_MARKER();
 495:Middlewares/Third_Party/FreeRTOS/Source/timers.c **** 	}
 496:Middlewares/Third_Party/FreeRTOS/Source/timers.c **** 
 497:Middlewares/Third_Party/FreeRTOS/Source/timers.c **** 	/* Call the timer callback. */
 498:Middlewares/Third_Party/FreeRTOS/Source/timers.c **** 	pxTimer->pxCallbackFunction( ( TimerHandle_t ) pxTimer );
 499:Middlewares/Third_Party/FreeRTOS/Source/timers.c **** }
 500:Middlewares/Third_Party/FreeRTOS/Source/timers.c **** /*-----------------------------------------------------------*/
 501:Middlewares/Third_Party/FreeRTOS/Source/timers.c **** 
 502:Middlewares/Third_Party/FreeRTOS/Source/timers.c **** static void prvTimerTask( void *pvParameters )
 503:Middlewares/Third_Party/FreeRTOS/Source/timers.c **** {
 504:Middlewares/Third_Party/FreeRTOS/Source/timers.c **** TickType_t xNextExpireTime;
 505:Middlewares/Third_Party/FreeRTOS/Source/timers.c **** BaseType_t xListWasEmpty;
 506:Middlewares/Third_Party/FreeRTOS/Source/timers.c **** 
 507:Middlewares/Third_Party/FreeRTOS/Source/timers.c **** 	/* Just to avoid compiler warnings. */
 508:Middlewares/Third_Party/FreeRTOS/Source/timers.c **** 	( void ) pvParameters;
 509:Middlewares/Third_Party/FreeRTOS/Source/timers.c **** 
 510:Middlewares/Third_Party/FreeRTOS/Source/timers.c **** 	#if( configUSE_DAEMON_TASK_STARTUP_HOOK == 1 )
 511:Middlewares/Third_Party/FreeRTOS/Source/timers.c **** 	{
 512:Middlewares/Third_Party/FreeRTOS/Source/timers.c **** 		extern void vApplicationDaemonTaskStartupHook( void );
 513:Middlewares/Third_Party/FreeRTOS/Source/timers.c **** 
 514:Middlewares/Third_Party/FreeRTOS/Source/timers.c **** 		/* Allow the application writer to execute some code in the context of
 515:Middlewares/Third_Party/FreeRTOS/Source/timers.c **** 		this task at the point the task starts executing.  This is useful if the
 516:Middlewares/Third_Party/FreeRTOS/Source/timers.c **** 		application includes initialisation code that would benefit from
 517:Middlewares/Third_Party/FreeRTOS/Source/timers.c **** 		executing after the scheduler has been started. */
 518:Middlewares/Third_Party/FreeRTOS/Source/timers.c **** 		vApplicationDaemonTaskStartupHook();
 519:Middlewares/Third_Party/FreeRTOS/Source/timers.c **** 	}
 520:Middlewares/Third_Party/FreeRTOS/Source/timers.c **** 	#endif /* configUSE_DAEMON_TASK_STARTUP_HOOK */
 521:Middlewares/Third_Party/FreeRTOS/Source/timers.c **** 
 522:Middlewares/Third_Party/FreeRTOS/Source/timers.c **** 	for( ;; )
 523:Middlewares/Third_Party/FreeRTOS/Source/timers.c **** 	{
 524:Middlewares/Third_Party/FreeRTOS/Source/timers.c **** 		/* Query the timers list to see if it contains any timers, and if so,
 525:Middlewares/Third_Party/FreeRTOS/Source/timers.c **** 		obtain the time at which the next timer will expire. */
 526:Middlewares/Third_Party/FreeRTOS/Source/timers.c **** 		xNextExpireTime = prvGetNextExpireTime( &xListWasEmpty );
 527:Middlewares/Third_Party/FreeRTOS/Source/timers.c **** 
 528:Middlewares/Third_Party/FreeRTOS/Source/timers.c **** 		/* If a timer has expired, process it.  Otherwise, block this task
 529:Middlewares/Third_Party/FreeRTOS/Source/timers.c **** 		until either a timer does expire, or a command is received. */
 530:Middlewares/Third_Party/FreeRTOS/Source/timers.c **** 		prvProcessTimerOrBlockTask( xNextExpireTime, xListWasEmpty );
 531:Middlewares/Third_Party/FreeRTOS/Source/timers.c **** 
 532:Middlewares/Third_Party/FreeRTOS/Source/timers.c **** 		/* Empty the command queue. */
 533:Middlewares/Third_Party/FreeRTOS/Source/timers.c **** 		prvProcessReceivedCommands();
 534:Middlewares/Third_Party/FreeRTOS/Source/timers.c **** 	}
 535:Middlewares/Third_Party/FreeRTOS/Source/timers.c **** }
 536:Middlewares/Third_Party/FreeRTOS/Source/timers.c **** /*-----------------------------------------------------------*/
 537:Middlewares/Third_Party/FreeRTOS/Source/timers.c **** 
 538:Middlewares/Third_Party/FreeRTOS/Source/timers.c **** static void prvProcessTimerOrBlockTask( const TickType_t xNextExpireTime, BaseType_t xListWasEmpty 
 539:Middlewares/Third_Party/FreeRTOS/Source/timers.c **** {
 540:Middlewares/Third_Party/FreeRTOS/Source/timers.c **** TickType_t xTimeNow;
 541:Middlewares/Third_Party/FreeRTOS/Source/timers.c **** BaseType_t xTimerListsWereSwitched;
 542:Middlewares/Third_Party/FreeRTOS/Source/timers.c **** 
 543:Middlewares/Third_Party/FreeRTOS/Source/timers.c **** 	vTaskSuspendAll();
 544:Middlewares/Third_Party/FreeRTOS/Source/timers.c **** 	{
 545:Middlewares/Third_Party/FreeRTOS/Source/timers.c **** 		/* Obtain the time now to make an assessment as to whether the timer
ARM GAS  /tmp/ccofPfel.s 			page 11


 546:Middlewares/Third_Party/FreeRTOS/Source/timers.c **** 		has expired or not.  If obtaining the time causes the lists to switch
 547:Middlewares/Third_Party/FreeRTOS/Source/timers.c **** 		then don't process this timer as any timers that remained in the list
 548:Middlewares/Third_Party/FreeRTOS/Source/timers.c **** 		when the lists were switched will have been processed within the
 549:Middlewares/Third_Party/FreeRTOS/Source/timers.c **** 		prvSampleTimeNow() function. */
 550:Middlewares/Third_Party/FreeRTOS/Source/timers.c **** 		xTimeNow = prvSampleTimeNow( &xTimerListsWereSwitched );
 551:Middlewares/Third_Party/FreeRTOS/Source/timers.c **** 		if( xTimerListsWereSwitched == pdFALSE )
 552:Middlewares/Third_Party/FreeRTOS/Source/timers.c **** 		{
 553:Middlewares/Third_Party/FreeRTOS/Source/timers.c **** 			/* The tick count has not overflowed, has the timer expired? */
 554:Middlewares/Third_Party/FreeRTOS/Source/timers.c **** 			if( ( xListWasEmpty == pdFALSE ) && ( xNextExpireTime <= xTimeNow ) )
 555:Middlewares/Third_Party/FreeRTOS/Source/timers.c **** 			{
 556:Middlewares/Third_Party/FreeRTOS/Source/timers.c **** 				( void ) xTaskResumeAll();
 557:Middlewares/Third_Party/FreeRTOS/Source/timers.c **** 				prvProcessExpiredTimer( xNextExpireTime, xTimeNow );
 558:Middlewares/Third_Party/FreeRTOS/Source/timers.c **** 			}
 559:Middlewares/Third_Party/FreeRTOS/Source/timers.c **** 			else
 560:Middlewares/Third_Party/FreeRTOS/Source/timers.c **** 			{
 561:Middlewares/Third_Party/FreeRTOS/Source/timers.c **** 				/* The tick count has not overflowed, and the next expire
 562:Middlewares/Third_Party/FreeRTOS/Source/timers.c **** 				time has not been reached yet.  This task should therefore
 563:Middlewares/Third_Party/FreeRTOS/Source/timers.c **** 				block to wait for the next expire time or a command to be
 564:Middlewares/Third_Party/FreeRTOS/Source/timers.c **** 				received - whichever comes first.  The following line cannot
 565:Middlewares/Third_Party/FreeRTOS/Source/timers.c **** 				be reached unless xNextExpireTime > xTimeNow, except in the
 566:Middlewares/Third_Party/FreeRTOS/Source/timers.c **** 				case when the current timer list is empty. */
 567:Middlewares/Third_Party/FreeRTOS/Source/timers.c **** 				if( xListWasEmpty != pdFALSE )
 568:Middlewares/Third_Party/FreeRTOS/Source/timers.c **** 				{
 569:Middlewares/Third_Party/FreeRTOS/Source/timers.c **** 					/* The current timer list is empty - is the overflow list
 570:Middlewares/Third_Party/FreeRTOS/Source/timers.c **** 					also empty? */
 571:Middlewares/Third_Party/FreeRTOS/Source/timers.c **** 					xListWasEmpty = listLIST_IS_EMPTY( pxOverflowTimerList );
 572:Middlewares/Third_Party/FreeRTOS/Source/timers.c **** 				}
 573:Middlewares/Third_Party/FreeRTOS/Source/timers.c **** 
 574:Middlewares/Third_Party/FreeRTOS/Source/timers.c **** 				vQueueWaitForMessageRestricted( xTimerQueue, ( xNextExpireTime - xTimeNow ), xListWasEmpty );
 575:Middlewares/Third_Party/FreeRTOS/Source/timers.c **** 
 576:Middlewares/Third_Party/FreeRTOS/Source/timers.c **** 				if( xTaskResumeAll() == pdFALSE )
 577:Middlewares/Third_Party/FreeRTOS/Source/timers.c **** 				{
 578:Middlewares/Third_Party/FreeRTOS/Source/timers.c **** 					/* Yield to wait for either a command to arrive, or the
 579:Middlewares/Third_Party/FreeRTOS/Source/timers.c **** 					block time to expire.  If a command arrived between the
 580:Middlewares/Third_Party/FreeRTOS/Source/timers.c **** 					critical section being exited and this yield then the yield
 581:Middlewares/Third_Party/FreeRTOS/Source/timers.c **** 					will not cause the task to block. */
 582:Middlewares/Third_Party/FreeRTOS/Source/timers.c **** 					portYIELD_WITHIN_API();
 583:Middlewares/Third_Party/FreeRTOS/Source/timers.c **** 				}
 584:Middlewares/Third_Party/FreeRTOS/Source/timers.c **** 				else
 585:Middlewares/Third_Party/FreeRTOS/Source/timers.c **** 				{
 586:Middlewares/Third_Party/FreeRTOS/Source/timers.c **** 					mtCOVERAGE_TEST_MARKER();
 587:Middlewares/Third_Party/FreeRTOS/Source/timers.c **** 				}
 588:Middlewares/Third_Party/FreeRTOS/Source/timers.c **** 			}
 589:Middlewares/Third_Party/FreeRTOS/Source/timers.c **** 		}
 590:Middlewares/Third_Party/FreeRTOS/Source/timers.c **** 		else
 591:Middlewares/Third_Party/FreeRTOS/Source/timers.c **** 		{
 592:Middlewares/Third_Party/FreeRTOS/Source/timers.c **** 			( void ) xTaskResumeAll();
 593:Middlewares/Third_Party/FreeRTOS/Source/timers.c **** 		}
 594:Middlewares/Third_Party/FreeRTOS/Source/timers.c **** 	}
 595:Middlewares/Third_Party/FreeRTOS/Source/timers.c **** }
 596:Middlewares/Third_Party/FreeRTOS/Source/timers.c **** /*-----------------------------------------------------------*/
 597:Middlewares/Third_Party/FreeRTOS/Source/timers.c **** 
 598:Middlewares/Third_Party/FreeRTOS/Source/timers.c **** static TickType_t prvGetNextExpireTime( BaseType_t * const pxListWasEmpty )
 599:Middlewares/Third_Party/FreeRTOS/Source/timers.c **** {
 600:Middlewares/Third_Party/FreeRTOS/Source/timers.c **** TickType_t xNextExpireTime;
 601:Middlewares/Third_Party/FreeRTOS/Source/timers.c **** 
 602:Middlewares/Third_Party/FreeRTOS/Source/timers.c **** 	/* Timers are listed in expiry time order, with the head of the list
ARM GAS  /tmp/ccofPfel.s 			page 12


 603:Middlewares/Third_Party/FreeRTOS/Source/timers.c **** 	referencing the task that will expire first.  Obtain the time at which
 604:Middlewares/Third_Party/FreeRTOS/Source/timers.c **** 	the timer with the nearest expiry time will expire.  If there are no
 605:Middlewares/Third_Party/FreeRTOS/Source/timers.c **** 	active timers then just set the next expire time to 0.  That will cause
 606:Middlewares/Third_Party/FreeRTOS/Source/timers.c **** 	this task to unblock when the tick count overflows, at which point the
 607:Middlewares/Third_Party/FreeRTOS/Source/timers.c **** 	timer lists will be switched and the next expiry time can be
 608:Middlewares/Third_Party/FreeRTOS/Source/timers.c **** 	re-assessed.  */
 609:Middlewares/Third_Party/FreeRTOS/Source/timers.c **** 	*pxListWasEmpty = listLIST_IS_EMPTY( pxCurrentTimerList );
 610:Middlewares/Third_Party/FreeRTOS/Source/timers.c **** 	if( *pxListWasEmpty == pdFALSE )
 611:Middlewares/Third_Party/FreeRTOS/Source/timers.c **** 	{
 612:Middlewares/Third_Party/FreeRTOS/Source/timers.c **** 		xNextExpireTime = listGET_ITEM_VALUE_OF_HEAD_ENTRY( pxCurrentTimerList );
 613:Middlewares/Third_Party/FreeRTOS/Source/timers.c **** 	}
 614:Middlewares/Third_Party/FreeRTOS/Source/timers.c **** 	else
 615:Middlewares/Third_Party/FreeRTOS/Source/timers.c **** 	{
 616:Middlewares/Third_Party/FreeRTOS/Source/timers.c **** 		/* Ensure the task unblocks when the tick count rolls over. */
 617:Middlewares/Third_Party/FreeRTOS/Source/timers.c **** 		xNextExpireTime = ( TickType_t ) 0U;
 618:Middlewares/Third_Party/FreeRTOS/Source/timers.c **** 	}
 619:Middlewares/Third_Party/FreeRTOS/Source/timers.c **** 
 620:Middlewares/Third_Party/FreeRTOS/Source/timers.c **** 	return xNextExpireTime;
 621:Middlewares/Third_Party/FreeRTOS/Source/timers.c **** }
 622:Middlewares/Third_Party/FreeRTOS/Source/timers.c **** /*-----------------------------------------------------------*/
 623:Middlewares/Third_Party/FreeRTOS/Source/timers.c **** 
 624:Middlewares/Third_Party/FreeRTOS/Source/timers.c **** static TickType_t prvSampleTimeNow( BaseType_t * const pxTimerListsWereSwitched )
 625:Middlewares/Third_Party/FreeRTOS/Source/timers.c **** {
 626:Middlewares/Third_Party/FreeRTOS/Source/timers.c **** TickType_t xTimeNow;
 627:Middlewares/Third_Party/FreeRTOS/Source/timers.c **** PRIVILEGED_DATA static TickType_t xLastTime = ( TickType_t ) 0U; /*lint !e956 Variable is only acce
 628:Middlewares/Third_Party/FreeRTOS/Source/timers.c **** 
 629:Middlewares/Third_Party/FreeRTOS/Source/timers.c **** 	xTimeNow = xTaskGetTickCount();
 630:Middlewares/Third_Party/FreeRTOS/Source/timers.c **** 
 631:Middlewares/Third_Party/FreeRTOS/Source/timers.c **** 	if( xTimeNow < xLastTime )
 632:Middlewares/Third_Party/FreeRTOS/Source/timers.c **** 	{
 633:Middlewares/Third_Party/FreeRTOS/Source/timers.c **** 		prvSwitchTimerLists();
 634:Middlewares/Third_Party/FreeRTOS/Source/timers.c **** 		*pxTimerListsWereSwitched = pdTRUE;
 635:Middlewares/Third_Party/FreeRTOS/Source/timers.c **** 	}
 636:Middlewares/Third_Party/FreeRTOS/Source/timers.c **** 	else
 637:Middlewares/Third_Party/FreeRTOS/Source/timers.c **** 	{
 638:Middlewares/Third_Party/FreeRTOS/Source/timers.c **** 		*pxTimerListsWereSwitched = pdFALSE;
 639:Middlewares/Third_Party/FreeRTOS/Source/timers.c **** 	}
 640:Middlewares/Third_Party/FreeRTOS/Source/timers.c **** 
 641:Middlewares/Third_Party/FreeRTOS/Source/timers.c **** 	xLastTime = xTimeNow;
 642:Middlewares/Third_Party/FreeRTOS/Source/timers.c **** 
 643:Middlewares/Third_Party/FreeRTOS/Source/timers.c **** 	return xTimeNow;
 644:Middlewares/Third_Party/FreeRTOS/Source/timers.c **** }
 645:Middlewares/Third_Party/FreeRTOS/Source/timers.c **** /*-----------------------------------------------------------*/
 646:Middlewares/Third_Party/FreeRTOS/Source/timers.c **** 
 647:Middlewares/Third_Party/FreeRTOS/Source/timers.c **** static BaseType_t prvInsertTimerInActiveList( Timer_t * const pxTimer, const TickType_t xNextExpiry
 648:Middlewares/Third_Party/FreeRTOS/Source/timers.c **** {
  27              		.loc 1 648 1 view -0
  28              		.cfi_startproc
  29              		@ args = 0, pretend = 0, frame = 0
  30              		@ frame_needed = 0, uses_anonymous_args = 0
 649:Middlewares/Third_Party/FreeRTOS/Source/timers.c **** BaseType_t xProcessTimerNow = pdFALSE;
  31              		.loc 1 649 1 view .LVU1
 650:Middlewares/Third_Party/FreeRTOS/Source/timers.c **** 
 651:Middlewares/Third_Party/FreeRTOS/Source/timers.c **** 	listSET_LIST_ITEM_VALUE( &( pxTimer->xTimerListItem ), xNextExpiryTime );
  32              		.loc 1 651 2 view .LVU2
 652:Middlewares/Third_Party/FreeRTOS/Source/timers.c **** 	listSET_LIST_ITEM_OWNER( &( pxTimer->xTimerListItem ), pxTimer );
 653:Middlewares/Third_Party/FreeRTOS/Source/timers.c **** 
ARM GAS  /tmp/ccofPfel.s 			page 13


 654:Middlewares/Third_Party/FreeRTOS/Source/timers.c **** 	if( xNextExpiryTime <= xTimeNow )
  33              		.loc 1 654 4 is_stmt 0 view .LVU3
  34 0000 9142     		cmp	r1, r2
 648:Middlewares/Third_Party/FreeRTOS/Source/timers.c **** BaseType_t xProcessTimerNow = pdFALSE;
  35              		.loc 1 648 1 view .LVU4
  36 0002 08B5     		push	{r3, lr}
  37              		.cfi_def_cfa_offset 8
  38              		.cfi_offset 3, -8
  39              		.cfi_offset 14, -4
 651:Middlewares/Third_Party/FreeRTOS/Source/timers.c **** 	listSET_LIST_ITEM_OWNER( &( pxTimer->xTimerListItem ), pxTimer );
  40              		.loc 1 651 2 view .LVU5
  41 0004 4160     		str	r1, [r0, #4]
 652:Middlewares/Third_Party/FreeRTOS/Source/timers.c **** 	listSET_LIST_ITEM_OWNER( &( pxTimer->xTimerListItem ), pxTimer );
  42              		.loc 1 652 2 is_stmt 1 view .LVU6
  43 0006 0061     		str	r0, [r0, #16]
  44              		.loc 1 654 2 view .LVU7
  45              		.loc 1 654 4 is_stmt 0 view .LVU8
  46 0008 0AD8     		bhi	.L2
 655:Middlewares/Third_Party/FreeRTOS/Source/timers.c **** 	{
 656:Middlewares/Third_Party/FreeRTOS/Source/timers.c **** 		/* Has the expiry time elapsed between the command to start/reset a
 657:Middlewares/Third_Party/FreeRTOS/Source/timers.c **** 		timer was issued, and the time the command was processed? */
 658:Middlewares/Third_Party/FreeRTOS/Source/timers.c **** 		if( ( ( TickType_t ) ( xTimeNow - xCommandTime ) ) >= pxTimer->xTimerPeriodInTicks ) /*lint !e961
  47              		.loc 1 658 3 is_stmt 1 view .LVU9
  48              		.loc 1 658 35 is_stmt 0 view .LVU10
  49 000a D21A     		subs	r2, r2, r3
  50              	.LVL1:
  51              		.loc 1 658 5 view .LVU11
  52 000c 8369     		ldr	r3, [r0, #24]
  53              	.LVL2:
  54              		.loc 1 658 5 view .LVU12
  55 000e 9A42     		cmp	r2, r3
  56 0010 0DD2     		bcs	.L7
 659:Middlewares/Third_Party/FreeRTOS/Source/timers.c **** 		{
 660:Middlewares/Third_Party/FreeRTOS/Source/timers.c **** 			/* The time between a command being issued and the command being
 661:Middlewares/Third_Party/FreeRTOS/Source/timers.c **** 			processed actually exceeds the timers period.  */
 662:Middlewares/Third_Party/FreeRTOS/Source/timers.c **** 			xProcessTimerNow = pdTRUE;
 663:Middlewares/Third_Party/FreeRTOS/Source/timers.c **** 		}
 664:Middlewares/Third_Party/FreeRTOS/Source/timers.c **** 		else
 665:Middlewares/Third_Party/FreeRTOS/Source/timers.c **** 		{
 666:Middlewares/Third_Party/FreeRTOS/Source/timers.c **** 			vListInsert( pxOverflowTimerList, &( pxTimer->xTimerListItem ) );
  57              		.loc 1 666 4 is_stmt 1 view .LVU13
  58 0012 084B     		ldr	r3, .L9
  59 0014 011D     		adds	r1, r0, #4
  60              	.LVL3:
  61              	.L8:
 667:Middlewares/Third_Party/FreeRTOS/Source/timers.c **** 		}
 668:Middlewares/Third_Party/FreeRTOS/Source/timers.c **** 	}
 669:Middlewares/Third_Party/FreeRTOS/Source/timers.c **** 	else
 670:Middlewares/Third_Party/FreeRTOS/Source/timers.c **** 	{
 671:Middlewares/Third_Party/FreeRTOS/Source/timers.c **** 		if( ( xTimeNow < xCommandTime ) && ( xNextExpiryTime >= xCommandTime ) )
 672:Middlewares/Third_Party/FreeRTOS/Source/timers.c **** 		{
 673:Middlewares/Third_Party/FreeRTOS/Source/timers.c **** 			/* If, since the command was issued, the tick count has overflowed
 674:Middlewares/Third_Party/FreeRTOS/Source/timers.c **** 			but the expiry time has not, then the timer must have already passed
 675:Middlewares/Third_Party/FreeRTOS/Source/timers.c **** 			its expiry time and should be processed immediately. */
 676:Middlewares/Third_Party/FreeRTOS/Source/timers.c **** 			xProcessTimerNow = pdTRUE;
 677:Middlewares/Third_Party/FreeRTOS/Source/timers.c **** 		}
 678:Middlewares/Third_Party/FreeRTOS/Source/timers.c **** 		else
ARM GAS  /tmp/ccofPfel.s 			page 14


 679:Middlewares/Third_Party/FreeRTOS/Source/timers.c **** 		{
 680:Middlewares/Third_Party/FreeRTOS/Source/timers.c **** 			vListInsert( pxCurrentTimerList, &( pxTimer->xTimerListItem ) );
  62              		.loc 1 680 4 is_stmt 0 view .LVU14
  63 0016 1868     		ldr	r0, [r3]
  64              	.LVL4:
  65              		.loc 1 680 4 view .LVU15
  66 0018 FFF7FEFF 		bl	vListInsert
  67              	.LVL5:
 649:Middlewares/Third_Party/FreeRTOS/Source/timers.c **** 
  68              		.loc 1 649 12 view .LVU16
  69 001c 0020     		movs	r0, #0
  70              	.LVL6:
  71              	.L1:
 681:Middlewares/Third_Party/FreeRTOS/Source/timers.c **** 		}
 682:Middlewares/Third_Party/FreeRTOS/Source/timers.c **** 	}
 683:Middlewares/Third_Party/FreeRTOS/Source/timers.c **** 
 684:Middlewares/Third_Party/FreeRTOS/Source/timers.c **** 	return xProcessTimerNow;
 685:Middlewares/Third_Party/FreeRTOS/Source/timers.c **** }
  72              		.loc 1 685 1 view .LVU17
  73 001e 08BD     		pop	{r3, pc}
  74              	.LVL7:
  75              	.L2:
 671:Middlewares/Third_Party/FreeRTOS/Source/timers.c **** 		{
  76              		.loc 1 671 3 is_stmt 1 view .LVU18
 671:Middlewares/Third_Party/FreeRTOS/Source/timers.c **** 		{
  77              		.loc 1 671 5 is_stmt 0 view .LVU19
  78 0020 9A42     		cmp	r2, r3
  79 0022 01D2     		bcs	.L5
 671:Middlewares/Third_Party/FreeRTOS/Source/timers.c **** 		{
  80              		.loc 1 671 35 discriminator 1 view .LVU20
  81 0024 9942     		cmp	r1, r3
  82 0026 02D2     		bcs	.L7
  83              	.L5:
 680:Middlewares/Third_Party/FreeRTOS/Source/timers.c **** 		}
  84              		.loc 1 680 4 is_stmt 1 view .LVU21
  85 0028 034B     		ldr	r3, .L9+4
  86              	.LVL8:
 680:Middlewares/Third_Party/FreeRTOS/Source/timers.c **** 		}
  87              		.loc 1 680 4 is_stmt 0 view .LVU22
  88 002a 011D     		adds	r1, r0, #4
  89              	.LVL9:
 680:Middlewares/Third_Party/FreeRTOS/Source/timers.c **** 		}
  90              		.loc 1 680 4 view .LVU23
  91 002c F3E7     		b	.L8
  92              	.LVL10:
  93              	.L7:
 676:Middlewares/Third_Party/FreeRTOS/Source/timers.c **** 		}
  94              		.loc 1 676 21 view .LVU24
  95 002e 0120     		movs	r0, #1
  96              	.LVL11:
 684:Middlewares/Third_Party/FreeRTOS/Source/timers.c **** }
  97              		.loc 1 684 2 is_stmt 1 view .LVU25
 684:Middlewares/Third_Party/FreeRTOS/Source/timers.c **** }
  98              		.loc 1 684 9 is_stmt 0 view .LVU26
  99 0030 F5E7     		b	.L1
 100              	.L10:
 101 0032 00BF     		.align	2
ARM GAS  /tmp/ccofPfel.s 			page 15


 102              	.L9:
 103 0034 00000000 		.word	pxOverflowTimerList
 104 0038 00000000 		.word	pxCurrentTimerList
 105              		.cfi_endproc
 106              	.LFE18:
 108              		.section	.rodata.prvCheckForValidListAndQueue.str1.1,"aMS",%progbits,1
 109              	.LC0:
 110 0000 546D7251 		.ascii	"TmrQ\000"
 110      00
 111              		.section	.text.prvCheckForValidListAndQueue,"ax",%progbits
 112              		.align	1
 113              		.syntax unified
 114              		.thumb
 115              		.thumb_func
 117              	prvCheckForValidListAndQueue:
 118              	.LFB21:
 686:Middlewares/Third_Party/FreeRTOS/Source/timers.c **** /*-----------------------------------------------------------*/
 687:Middlewares/Third_Party/FreeRTOS/Source/timers.c **** 
 688:Middlewares/Third_Party/FreeRTOS/Source/timers.c **** static void	prvProcessReceivedCommands( void )
 689:Middlewares/Third_Party/FreeRTOS/Source/timers.c **** {
 690:Middlewares/Third_Party/FreeRTOS/Source/timers.c **** DaemonTaskMessage_t xMessage;
 691:Middlewares/Third_Party/FreeRTOS/Source/timers.c **** Timer_t *pxTimer;
 692:Middlewares/Third_Party/FreeRTOS/Source/timers.c **** BaseType_t xTimerListsWereSwitched, xResult;
 693:Middlewares/Third_Party/FreeRTOS/Source/timers.c **** TickType_t xTimeNow;
 694:Middlewares/Third_Party/FreeRTOS/Source/timers.c **** 
 695:Middlewares/Third_Party/FreeRTOS/Source/timers.c **** 	while( xQueueReceive( xTimerQueue, &xMessage, tmrNO_DELAY ) != pdFAIL ) /*lint !e603 xMessage does
 696:Middlewares/Third_Party/FreeRTOS/Source/timers.c **** 	{
 697:Middlewares/Third_Party/FreeRTOS/Source/timers.c **** 		#if ( INCLUDE_xTimerPendFunctionCall == 1 )
 698:Middlewares/Third_Party/FreeRTOS/Source/timers.c **** 		{
 699:Middlewares/Third_Party/FreeRTOS/Source/timers.c **** 			/* Negative commands are pended function calls rather than timer
 700:Middlewares/Third_Party/FreeRTOS/Source/timers.c **** 			commands. */
 701:Middlewares/Third_Party/FreeRTOS/Source/timers.c **** 			if( xMessage.xMessageID < ( BaseType_t ) 0 )
 702:Middlewares/Third_Party/FreeRTOS/Source/timers.c **** 			{
 703:Middlewares/Third_Party/FreeRTOS/Source/timers.c **** 				const CallbackParameters_t * const pxCallback = &( xMessage.u.xCallbackParameters );
 704:Middlewares/Third_Party/FreeRTOS/Source/timers.c **** 
 705:Middlewares/Third_Party/FreeRTOS/Source/timers.c **** 				/* The timer uses the xCallbackParameters member to request a
 706:Middlewares/Third_Party/FreeRTOS/Source/timers.c **** 				callback be executed.  Check the callback is not NULL. */
 707:Middlewares/Third_Party/FreeRTOS/Source/timers.c **** 				configASSERT( pxCallback );
 708:Middlewares/Third_Party/FreeRTOS/Source/timers.c **** 
 709:Middlewares/Third_Party/FreeRTOS/Source/timers.c **** 				/* Call the function. */
 710:Middlewares/Third_Party/FreeRTOS/Source/timers.c **** 				pxCallback->pxCallbackFunction( pxCallback->pvParameter1, pxCallback->ulParameter2 );
 711:Middlewares/Third_Party/FreeRTOS/Source/timers.c **** 			}
 712:Middlewares/Third_Party/FreeRTOS/Source/timers.c **** 			else
 713:Middlewares/Third_Party/FreeRTOS/Source/timers.c **** 			{
 714:Middlewares/Third_Party/FreeRTOS/Source/timers.c **** 				mtCOVERAGE_TEST_MARKER();
 715:Middlewares/Third_Party/FreeRTOS/Source/timers.c **** 			}
 716:Middlewares/Third_Party/FreeRTOS/Source/timers.c **** 		}
 717:Middlewares/Third_Party/FreeRTOS/Source/timers.c **** 		#endif /* INCLUDE_xTimerPendFunctionCall */
 718:Middlewares/Third_Party/FreeRTOS/Source/timers.c **** 
 719:Middlewares/Third_Party/FreeRTOS/Source/timers.c **** 		/* Commands that are positive are timer commands rather than pended
 720:Middlewares/Third_Party/FreeRTOS/Source/timers.c **** 		function calls. */
 721:Middlewares/Third_Party/FreeRTOS/Source/timers.c **** 		if( xMessage.xMessageID >= ( BaseType_t ) 0 )
 722:Middlewares/Third_Party/FreeRTOS/Source/timers.c **** 		{
 723:Middlewares/Third_Party/FreeRTOS/Source/timers.c **** 			/* The messages uses the xTimerParameters member to work on a
 724:Middlewares/Third_Party/FreeRTOS/Source/timers.c **** 			software timer. */
 725:Middlewares/Third_Party/FreeRTOS/Source/timers.c **** 			pxTimer = xMessage.u.xTimerParameters.pxTimer;
 726:Middlewares/Third_Party/FreeRTOS/Source/timers.c **** 
ARM GAS  /tmp/ccofPfel.s 			page 16


 727:Middlewares/Third_Party/FreeRTOS/Source/timers.c **** 			if( listIS_CONTAINED_WITHIN( NULL, &( pxTimer->xTimerListItem ) ) == pdFALSE ) /*lint !e961. The
 728:Middlewares/Third_Party/FreeRTOS/Source/timers.c **** 			{
 729:Middlewares/Third_Party/FreeRTOS/Source/timers.c **** 				/* The timer is in a list, remove it. */
 730:Middlewares/Third_Party/FreeRTOS/Source/timers.c **** 				( void ) uxListRemove( &( pxTimer->xTimerListItem ) );
 731:Middlewares/Third_Party/FreeRTOS/Source/timers.c **** 			}
 732:Middlewares/Third_Party/FreeRTOS/Source/timers.c **** 			else
 733:Middlewares/Third_Party/FreeRTOS/Source/timers.c **** 			{
 734:Middlewares/Third_Party/FreeRTOS/Source/timers.c **** 				mtCOVERAGE_TEST_MARKER();
 735:Middlewares/Third_Party/FreeRTOS/Source/timers.c **** 			}
 736:Middlewares/Third_Party/FreeRTOS/Source/timers.c **** 
 737:Middlewares/Third_Party/FreeRTOS/Source/timers.c **** 			traceTIMER_COMMAND_RECEIVED( pxTimer, xMessage.xMessageID, xMessage.u.xTimerParameters.xMessageV
 738:Middlewares/Third_Party/FreeRTOS/Source/timers.c **** 
 739:Middlewares/Third_Party/FreeRTOS/Source/timers.c **** 			/* In this case the xTimerListsWereSwitched parameter is not used, but
 740:Middlewares/Third_Party/FreeRTOS/Source/timers.c **** 			it must be present in the function call.  prvSampleTimeNow() must be
 741:Middlewares/Third_Party/FreeRTOS/Source/timers.c **** 			called after the message is received from xTimerQueue so there is no
 742:Middlewares/Third_Party/FreeRTOS/Source/timers.c **** 			possibility of a higher priority task adding a message to the message
 743:Middlewares/Third_Party/FreeRTOS/Source/timers.c **** 			queue with a time that is ahead of the timer daemon task (because it
 744:Middlewares/Third_Party/FreeRTOS/Source/timers.c **** 			pre-empted the timer daemon task after the xTimeNow value was set). */
 745:Middlewares/Third_Party/FreeRTOS/Source/timers.c **** 			xTimeNow = prvSampleTimeNow( &xTimerListsWereSwitched );
 746:Middlewares/Third_Party/FreeRTOS/Source/timers.c **** 
 747:Middlewares/Third_Party/FreeRTOS/Source/timers.c **** 			switch( xMessage.xMessageID )
 748:Middlewares/Third_Party/FreeRTOS/Source/timers.c **** 			{
 749:Middlewares/Third_Party/FreeRTOS/Source/timers.c **** 				case tmrCOMMAND_START :
 750:Middlewares/Third_Party/FreeRTOS/Source/timers.c **** 			    case tmrCOMMAND_START_FROM_ISR :
 751:Middlewares/Third_Party/FreeRTOS/Source/timers.c **** 			    case tmrCOMMAND_RESET :
 752:Middlewares/Third_Party/FreeRTOS/Source/timers.c **** 			    case tmrCOMMAND_RESET_FROM_ISR :
 753:Middlewares/Third_Party/FreeRTOS/Source/timers.c **** 				case tmrCOMMAND_START_DONT_TRACE :
 754:Middlewares/Third_Party/FreeRTOS/Source/timers.c **** 					/* Start or restart a timer. */
 755:Middlewares/Third_Party/FreeRTOS/Source/timers.c **** 					if( prvInsertTimerInActiveList( pxTimer,  xMessage.u.xTimerParameters.xMessageValue + pxTimer-
 756:Middlewares/Third_Party/FreeRTOS/Source/timers.c **** 					{
 757:Middlewares/Third_Party/FreeRTOS/Source/timers.c **** 						/* The timer expired before it was added to the active
 758:Middlewares/Third_Party/FreeRTOS/Source/timers.c **** 						timer list.  Process it now. */
 759:Middlewares/Third_Party/FreeRTOS/Source/timers.c **** 						pxTimer->pxCallbackFunction( ( TimerHandle_t ) pxTimer );
 760:Middlewares/Third_Party/FreeRTOS/Source/timers.c **** 						traceTIMER_EXPIRED( pxTimer );
 761:Middlewares/Third_Party/FreeRTOS/Source/timers.c **** 
 762:Middlewares/Third_Party/FreeRTOS/Source/timers.c **** 						if( pxTimer->uxAutoReload == ( UBaseType_t ) pdTRUE )
 763:Middlewares/Third_Party/FreeRTOS/Source/timers.c **** 						{
 764:Middlewares/Third_Party/FreeRTOS/Source/timers.c **** 							xResult = xTimerGenericCommand( pxTimer, tmrCOMMAND_START_DONT_TRACE, xMessage.u.xTimerParam
 765:Middlewares/Third_Party/FreeRTOS/Source/timers.c **** 							configASSERT( xResult );
 766:Middlewares/Third_Party/FreeRTOS/Source/timers.c **** 							( void ) xResult;
 767:Middlewares/Third_Party/FreeRTOS/Source/timers.c **** 						}
 768:Middlewares/Third_Party/FreeRTOS/Source/timers.c **** 						else
 769:Middlewares/Third_Party/FreeRTOS/Source/timers.c **** 						{
 770:Middlewares/Third_Party/FreeRTOS/Source/timers.c **** 							mtCOVERAGE_TEST_MARKER();
 771:Middlewares/Third_Party/FreeRTOS/Source/timers.c **** 						}
 772:Middlewares/Third_Party/FreeRTOS/Source/timers.c **** 					}
 773:Middlewares/Third_Party/FreeRTOS/Source/timers.c **** 					else
 774:Middlewares/Third_Party/FreeRTOS/Source/timers.c **** 					{
 775:Middlewares/Third_Party/FreeRTOS/Source/timers.c **** 						mtCOVERAGE_TEST_MARKER();
 776:Middlewares/Third_Party/FreeRTOS/Source/timers.c **** 					}
 777:Middlewares/Third_Party/FreeRTOS/Source/timers.c **** 					break;
 778:Middlewares/Third_Party/FreeRTOS/Source/timers.c **** 
 779:Middlewares/Third_Party/FreeRTOS/Source/timers.c **** 				case tmrCOMMAND_STOP :
 780:Middlewares/Third_Party/FreeRTOS/Source/timers.c **** 				case tmrCOMMAND_STOP_FROM_ISR :
 781:Middlewares/Third_Party/FreeRTOS/Source/timers.c **** 					/* The timer has already been removed from the active list.
 782:Middlewares/Third_Party/FreeRTOS/Source/timers.c **** 					There is nothing to do here. */
 783:Middlewares/Third_Party/FreeRTOS/Source/timers.c **** 					break;
ARM GAS  /tmp/ccofPfel.s 			page 17


 784:Middlewares/Third_Party/FreeRTOS/Source/timers.c **** 
 785:Middlewares/Third_Party/FreeRTOS/Source/timers.c **** 				case tmrCOMMAND_CHANGE_PERIOD :
 786:Middlewares/Third_Party/FreeRTOS/Source/timers.c **** 				case tmrCOMMAND_CHANGE_PERIOD_FROM_ISR :
 787:Middlewares/Third_Party/FreeRTOS/Source/timers.c **** 					pxTimer->xTimerPeriodInTicks = xMessage.u.xTimerParameters.xMessageValue;
 788:Middlewares/Third_Party/FreeRTOS/Source/timers.c **** 					configASSERT( ( pxTimer->xTimerPeriodInTicks > 0 ) );
 789:Middlewares/Third_Party/FreeRTOS/Source/timers.c **** 
 790:Middlewares/Third_Party/FreeRTOS/Source/timers.c **** 					/* The new period does not really have a reference, and can
 791:Middlewares/Third_Party/FreeRTOS/Source/timers.c **** 					be longer or shorter than the old one.  The command time is
 792:Middlewares/Third_Party/FreeRTOS/Source/timers.c **** 					therefore set to the current time, and as the period cannot
 793:Middlewares/Third_Party/FreeRTOS/Source/timers.c **** 					be zero the next expiry time can only be in the future,
 794:Middlewares/Third_Party/FreeRTOS/Source/timers.c **** 					meaning (unlike for the xTimerStart() case above) there is
 795:Middlewares/Third_Party/FreeRTOS/Source/timers.c **** 					no fail case that needs to be handled here. */
 796:Middlewares/Third_Party/FreeRTOS/Source/timers.c **** 					( void ) prvInsertTimerInActiveList( pxTimer, ( xTimeNow + pxTimer->xTimerPeriodInTicks ), xTi
 797:Middlewares/Third_Party/FreeRTOS/Source/timers.c **** 					break;
 798:Middlewares/Third_Party/FreeRTOS/Source/timers.c **** 
 799:Middlewares/Third_Party/FreeRTOS/Source/timers.c **** 				case tmrCOMMAND_DELETE :
 800:Middlewares/Third_Party/FreeRTOS/Source/timers.c **** 					/* The timer has already been removed from the active list,
 801:Middlewares/Third_Party/FreeRTOS/Source/timers.c **** 					just free up the memory if the memory was dynamically
 802:Middlewares/Third_Party/FreeRTOS/Source/timers.c **** 					allocated. */
 803:Middlewares/Third_Party/FreeRTOS/Source/timers.c **** 					#if( ( configSUPPORT_DYNAMIC_ALLOCATION == 1 ) && ( configSUPPORT_STATIC_ALLOCATION == 0 ) )
 804:Middlewares/Third_Party/FreeRTOS/Source/timers.c **** 					{
 805:Middlewares/Third_Party/FreeRTOS/Source/timers.c **** 						/* The timer can only have been allocated dynamically -
 806:Middlewares/Third_Party/FreeRTOS/Source/timers.c **** 						free it again. */
 807:Middlewares/Third_Party/FreeRTOS/Source/timers.c **** 						vPortFree( pxTimer );
 808:Middlewares/Third_Party/FreeRTOS/Source/timers.c **** 					}
 809:Middlewares/Third_Party/FreeRTOS/Source/timers.c **** 					#elif( ( configSUPPORT_DYNAMIC_ALLOCATION == 1 ) && ( configSUPPORT_STATIC_ALLOCATION == 1 ) )
 810:Middlewares/Third_Party/FreeRTOS/Source/timers.c **** 					{
 811:Middlewares/Third_Party/FreeRTOS/Source/timers.c **** 						/* The timer could have been allocated statically or
 812:Middlewares/Third_Party/FreeRTOS/Source/timers.c **** 						dynamically, so check before attempting to free the
 813:Middlewares/Third_Party/FreeRTOS/Source/timers.c **** 						memory. */
 814:Middlewares/Third_Party/FreeRTOS/Source/timers.c **** 						if( pxTimer->ucStaticallyAllocated == ( uint8_t ) pdFALSE )
 815:Middlewares/Third_Party/FreeRTOS/Source/timers.c **** 						{
 816:Middlewares/Third_Party/FreeRTOS/Source/timers.c **** 							vPortFree( pxTimer );
 817:Middlewares/Third_Party/FreeRTOS/Source/timers.c **** 						}
 818:Middlewares/Third_Party/FreeRTOS/Source/timers.c **** 						else
 819:Middlewares/Third_Party/FreeRTOS/Source/timers.c **** 						{
 820:Middlewares/Third_Party/FreeRTOS/Source/timers.c **** 							mtCOVERAGE_TEST_MARKER();
 821:Middlewares/Third_Party/FreeRTOS/Source/timers.c **** 						}
 822:Middlewares/Third_Party/FreeRTOS/Source/timers.c **** 					}
 823:Middlewares/Third_Party/FreeRTOS/Source/timers.c **** 					#endif /* configSUPPORT_DYNAMIC_ALLOCATION */
 824:Middlewares/Third_Party/FreeRTOS/Source/timers.c **** 					break;
 825:Middlewares/Third_Party/FreeRTOS/Source/timers.c **** 
 826:Middlewares/Third_Party/FreeRTOS/Source/timers.c **** 				default	:
 827:Middlewares/Third_Party/FreeRTOS/Source/timers.c **** 					/* Don't expect to get here. */
 828:Middlewares/Third_Party/FreeRTOS/Source/timers.c **** 					break;
 829:Middlewares/Third_Party/FreeRTOS/Source/timers.c **** 			}
 830:Middlewares/Third_Party/FreeRTOS/Source/timers.c **** 		}
 831:Middlewares/Third_Party/FreeRTOS/Source/timers.c **** 	}
 832:Middlewares/Third_Party/FreeRTOS/Source/timers.c **** }
 833:Middlewares/Third_Party/FreeRTOS/Source/timers.c **** /*-----------------------------------------------------------*/
 834:Middlewares/Third_Party/FreeRTOS/Source/timers.c **** 
 835:Middlewares/Third_Party/FreeRTOS/Source/timers.c **** static void prvSwitchTimerLists( void )
 836:Middlewares/Third_Party/FreeRTOS/Source/timers.c **** {
 837:Middlewares/Third_Party/FreeRTOS/Source/timers.c **** TickType_t xNextExpireTime, xReloadTime;
 838:Middlewares/Third_Party/FreeRTOS/Source/timers.c **** List_t *pxTemp;
 839:Middlewares/Third_Party/FreeRTOS/Source/timers.c **** Timer_t *pxTimer;
 840:Middlewares/Third_Party/FreeRTOS/Source/timers.c **** BaseType_t xResult;
ARM GAS  /tmp/ccofPfel.s 			page 18


 841:Middlewares/Third_Party/FreeRTOS/Source/timers.c **** 
 842:Middlewares/Third_Party/FreeRTOS/Source/timers.c **** 	/* The tick count has overflowed.  The timer lists must be switched.
 843:Middlewares/Third_Party/FreeRTOS/Source/timers.c **** 	If there are any timers still referenced from the current timer list
 844:Middlewares/Third_Party/FreeRTOS/Source/timers.c **** 	then they must have expired and should be processed before the lists
 845:Middlewares/Third_Party/FreeRTOS/Source/timers.c **** 	are switched. */
 846:Middlewares/Third_Party/FreeRTOS/Source/timers.c **** 	while( listLIST_IS_EMPTY( pxCurrentTimerList ) == pdFALSE )
 847:Middlewares/Third_Party/FreeRTOS/Source/timers.c **** 	{
 848:Middlewares/Third_Party/FreeRTOS/Source/timers.c **** 		xNextExpireTime = listGET_ITEM_VALUE_OF_HEAD_ENTRY( pxCurrentTimerList );
 849:Middlewares/Third_Party/FreeRTOS/Source/timers.c **** 
 850:Middlewares/Third_Party/FreeRTOS/Source/timers.c **** 		/* Remove the timer from the list. */
 851:Middlewares/Third_Party/FreeRTOS/Source/timers.c **** 		pxTimer = ( Timer_t * ) listGET_OWNER_OF_HEAD_ENTRY( pxCurrentTimerList );
 852:Middlewares/Third_Party/FreeRTOS/Source/timers.c **** 		( void ) uxListRemove( &( pxTimer->xTimerListItem ) );
 853:Middlewares/Third_Party/FreeRTOS/Source/timers.c **** 		traceTIMER_EXPIRED( pxTimer );
 854:Middlewares/Third_Party/FreeRTOS/Source/timers.c **** 
 855:Middlewares/Third_Party/FreeRTOS/Source/timers.c **** 		/* Execute its callback, then send a command to restart the timer if
 856:Middlewares/Third_Party/FreeRTOS/Source/timers.c **** 		it is an auto-reload timer.  It cannot be restarted here as the lists
 857:Middlewares/Third_Party/FreeRTOS/Source/timers.c **** 		have not yet been switched. */
 858:Middlewares/Third_Party/FreeRTOS/Source/timers.c **** 		pxTimer->pxCallbackFunction( ( TimerHandle_t ) pxTimer );
 859:Middlewares/Third_Party/FreeRTOS/Source/timers.c **** 
 860:Middlewares/Third_Party/FreeRTOS/Source/timers.c **** 		if( pxTimer->uxAutoReload == ( UBaseType_t ) pdTRUE )
 861:Middlewares/Third_Party/FreeRTOS/Source/timers.c **** 		{
 862:Middlewares/Third_Party/FreeRTOS/Source/timers.c **** 			/* Calculate the reload value, and if the reload value results in
 863:Middlewares/Third_Party/FreeRTOS/Source/timers.c **** 			the timer going into the same timer list then it has already expired
 864:Middlewares/Third_Party/FreeRTOS/Source/timers.c **** 			and the timer should be re-inserted into the current list so it is
 865:Middlewares/Third_Party/FreeRTOS/Source/timers.c **** 			processed again within this loop.  Otherwise a command should be sent
 866:Middlewares/Third_Party/FreeRTOS/Source/timers.c **** 			to restart the timer to ensure it is only inserted into a list after
 867:Middlewares/Third_Party/FreeRTOS/Source/timers.c **** 			the lists have been swapped. */
 868:Middlewares/Third_Party/FreeRTOS/Source/timers.c **** 			xReloadTime = ( xNextExpireTime + pxTimer->xTimerPeriodInTicks );
 869:Middlewares/Third_Party/FreeRTOS/Source/timers.c **** 			if( xReloadTime > xNextExpireTime )
 870:Middlewares/Third_Party/FreeRTOS/Source/timers.c **** 			{
 871:Middlewares/Third_Party/FreeRTOS/Source/timers.c **** 				listSET_LIST_ITEM_VALUE( &( pxTimer->xTimerListItem ), xReloadTime );
 872:Middlewares/Third_Party/FreeRTOS/Source/timers.c **** 				listSET_LIST_ITEM_OWNER( &( pxTimer->xTimerListItem ), pxTimer );
 873:Middlewares/Third_Party/FreeRTOS/Source/timers.c **** 				vListInsert( pxCurrentTimerList, &( pxTimer->xTimerListItem ) );
 874:Middlewares/Third_Party/FreeRTOS/Source/timers.c **** 			}
 875:Middlewares/Third_Party/FreeRTOS/Source/timers.c **** 			else
 876:Middlewares/Third_Party/FreeRTOS/Source/timers.c **** 			{
 877:Middlewares/Third_Party/FreeRTOS/Source/timers.c **** 				xResult = xTimerGenericCommand( pxTimer, tmrCOMMAND_START_DONT_TRACE, xNextExpireTime, NULL, tm
 878:Middlewares/Third_Party/FreeRTOS/Source/timers.c **** 				configASSERT( xResult );
 879:Middlewares/Third_Party/FreeRTOS/Source/timers.c **** 				( void ) xResult;
 880:Middlewares/Third_Party/FreeRTOS/Source/timers.c **** 			}
 881:Middlewares/Third_Party/FreeRTOS/Source/timers.c **** 		}
 882:Middlewares/Third_Party/FreeRTOS/Source/timers.c **** 		else
 883:Middlewares/Third_Party/FreeRTOS/Source/timers.c **** 		{
 884:Middlewares/Third_Party/FreeRTOS/Source/timers.c **** 			mtCOVERAGE_TEST_MARKER();
 885:Middlewares/Third_Party/FreeRTOS/Source/timers.c **** 		}
 886:Middlewares/Third_Party/FreeRTOS/Source/timers.c **** 	}
 887:Middlewares/Third_Party/FreeRTOS/Source/timers.c **** 
 888:Middlewares/Third_Party/FreeRTOS/Source/timers.c **** 	pxTemp = pxCurrentTimerList;
 889:Middlewares/Third_Party/FreeRTOS/Source/timers.c **** 	pxCurrentTimerList = pxOverflowTimerList;
 890:Middlewares/Third_Party/FreeRTOS/Source/timers.c **** 	pxOverflowTimerList = pxTemp;
 891:Middlewares/Third_Party/FreeRTOS/Source/timers.c **** }
 892:Middlewares/Third_Party/FreeRTOS/Source/timers.c **** /*-----------------------------------------------------------*/
 893:Middlewares/Third_Party/FreeRTOS/Source/timers.c **** 
 894:Middlewares/Third_Party/FreeRTOS/Source/timers.c **** static void prvCheckForValidListAndQueue( void )
 895:Middlewares/Third_Party/FreeRTOS/Source/timers.c **** {
 119              		.loc 1 895 1 is_stmt 1 view -0
 120              		.cfi_startproc
ARM GAS  /tmp/ccofPfel.s 			page 19


 121              		@ args = 0, pretend = 0, frame = 0
 122              		@ frame_needed = 0, uses_anonymous_args = 0
 896:Middlewares/Third_Party/FreeRTOS/Source/timers.c **** 	/* Check that the list from which active timers are referenced, and the
 897:Middlewares/Third_Party/FreeRTOS/Source/timers.c **** 	queue used to communicate with the timer service, have been
 898:Middlewares/Third_Party/FreeRTOS/Source/timers.c **** 	initialised. */
 899:Middlewares/Third_Party/FreeRTOS/Source/timers.c **** 	taskENTER_CRITICAL();
 123              		.loc 1 899 2 view .LVU28
 895:Middlewares/Third_Party/FreeRTOS/Source/timers.c **** 	/* Check that the list from which active timers are referenced, and the
 124              		.loc 1 895 1 is_stmt 0 view .LVU29
 125 0000 F7B5     		push	{r0, r1, r2, r4, r5, r6, r7, lr}
 126              		.cfi_def_cfa_offset 32
 127              		.cfi_offset 4, -20
 128              		.cfi_offset 5, -16
 129              		.cfi_offset 6, -12
 130              		.cfi_offset 7, -8
 131              		.cfi_offset 14, -4
 900:Middlewares/Third_Party/FreeRTOS/Source/timers.c **** 	{
 901:Middlewares/Third_Party/FreeRTOS/Source/timers.c **** 		if( xTimerQueue == NULL )
 132              		.loc 1 901 19 view .LVU30
 133 0002 114C     		ldr	r4, .L18
 899:Middlewares/Third_Party/FreeRTOS/Source/timers.c **** 	{
 134              		.loc 1 899 2 view .LVU31
 135 0004 FFF7FEFF 		bl	vPortEnterCritical
 136              	.LVL12:
 137              		.loc 1 901 3 is_stmt 1 view .LVU32
 138              		.loc 1 901 5 is_stmt 0 view .LVU33
 139 0008 2568     		ldr	r5, [r4]
 140 000a BDB9     		cbnz	r5, .L13
 902:Middlewares/Third_Party/FreeRTOS/Source/timers.c **** 		{
 903:Middlewares/Third_Party/FreeRTOS/Source/timers.c **** 			vListInitialise( &xActiveTimerList1 );
 141              		.loc 1 903 4 is_stmt 1 view .LVU34
 142 000c 0F4F     		ldr	r7, .L18+4
 904:Middlewares/Third_Party/FreeRTOS/Source/timers.c **** 			vListInitialise( &xActiveTimerList2 );
 143              		.loc 1 904 4 is_stmt 0 view .LVU35
 144 000e 104E     		ldr	r6, .L18+8
 903:Middlewares/Third_Party/FreeRTOS/Source/timers.c **** 			vListInitialise( &xActiveTimerList2 );
 145              		.loc 1 903 4 view .LVU36
 146 0010 3846     		mov	r0, r7
 147 0012 FFF7FEFF 		bl	vListInitialise
 148              	.LVL13:
 149              		.loc 1 904 4 is_stmt 1 view .LVU37
 150 0016 3046     		mov	r0, r6
 151 0018 FFF7FEFF 		bl	vListInitialise
 152              	.LVL14:
 905:Middlewares/Third_Party/FreeRTOS/Source/timers.c **** 			pxCurrentTimerList = &xActiveTimerList1;
 153              		.loc 1 905 4 view .LVU38
 154              		.loc 1 905 23 is_stmt 0 view .LVU39
 155 001c 0D4B     		ldr	r3, .L18+12
 156              	.LBB43:
 906:Middlewares/Third_Party/FreeRTOS/Source/timers.c **** 			pxOverflowTimerList = &xActiveTimerList2;
 907:Middlewares/Third_Party/FreeRTOS/Source/timers.c **** 
 908:Middlewares/Third_Party/FreeRTOS/Source/timers.c **** 			#if( configSUPPORT_STATIC_ALLOCATION == 1 )
 909:Middlewares/Third_Party/FreeRTOS/Source/timers.c **** 			{
 910:Middlewares/Third_Party/FreeRTOS/Source/timers.c **** 				/* The timer queue is allocated statically in case
 911:Middlewares/Third_Party/FreeRTOS/Source/timers.c **** 				configSUPPORT_DYNAMIC_ALLOCATION is 0. */
 912:Middlewares/Third_Party/FreeRTOS/Source/timers.c **** 				static StaticQueue_t xStaticTimerQueue; /*lint !e956 Ok to declare in this manner to prevent ad
 913:Middlewares/Third_Party/FreeRTOS/Source/timers.c **** 				static uint8_t ucStaticTimerQueueStorage[ ( size_t ) configTIMER_QUEUE_LENGTH * sizeof( DaemonT
ARM GAS  /tmp/ccofPfel.s 			page 20


 914:Middlewares/Third_Party/FreeRTOS/Source/timers.c **** 
 915:Middlewares/Third_Party/FreeRTOS/Source/timers.c **** 				xTimerQueue = xQueueCreateStatic( ( UBaseType_t ) configTIMER_QUEUE_LENGTH, ( UBaseType_t ) siz
 157              		.loc 1 915 19 view .LVU40
 158 001e 1021     		movs	r1, #16
 159              	.LBE43:
 905:Middlewares/Third_Party/FreeRTOS/Source/timers.c **** 			pxCurrentTimerList = &xActiveTimerList1;
 160              		.loc 1 905 23 view .LVU41
 161 0020 1F60     		str	r7, [r3]
 906:Middlewares/Third_Party/FreeRTOS/Source/timers.c **** 			pxOverflowTimerList = &xActiveTimerList2;
 162              		.loc 1 906 4 is_stmt 1 view .LVU42
 906:Middlewares/Third_Party/FreeRTOS/Source/timers.c **** 			pxOverflowTimerList = &xActiveTimerList2;
 163              		.loc 1 906 24 is_stmt 0 view .LVU43
 164 0022 0D4B     		ldr	r3, .L18+16
 165              	.LBB44:
 166              		.loc 1 915 19 view .LVU44
 167 0024 0A20     		movs	r0, #10
 168              	.LBE44:
 906:Middlewares/Third_Party/FreeRTOS/Source/timers.c **** 			pxOverflowTimerList = &xActiveTimerList2;
 169              		.loc 1 906 24 view .LVU45
 170 0026 1E60     		str	r6, [r3]
 171              	.LBB45:
 912:Middlewares/Third_Party/FreeRTOS/Source/timers.c **** 				static uint8_t ucStaticTimerQueueStorage[ ( size_t ) configTIMER_QUEUE_LENGTH * sizeof( DaemonT
 172              		.loc 1 912 5 is_stmt 1 view .LVU46
 913:Middlewares/Third_Party/FreeRTOS/Source/timers.c **** 
 173              		.loc 1 913 5 view .LVU47
 174              		.loc 1 915 5 view .LVU48
 175              		.loc 1 915 19 is_stmt 0 view .LVU49
 176 0028 0C4A     		ldr	r2, .L18+20
 177 002a 0D4B     		ldr	r3, .L18+24
 178 002c 0095     		str	r5, [sp]
 179 002e FFF7FEFF 		bl	xQueueGenericCreateStatic
 180              	.LVL15:
 181              		.loc 1 915 17 view .LVU50
 182 0032 2060     		str	r0, [r4]
 183              	.LBE45:
 916:Middlewares/Third_Party/FreeRTOS/Source/timers.c **** 			}
 917:Middlewares/Third_Party/FreeRTOS/Source/timers.c **** 			#else
 918:Middlewares/Third_Party/FreeRTOS/Source/timers.c **** 			{
 919:Middlewares/Third_Party/FreeRTOS/Source/timers.c **** 				xTimerQueue = xQueueCreate( ( UBaseType_t ) configTIMER_QUEUE_LENGTH, sizeof( DaemonTaskMessage
 920:Middlewares/Third_Party/FreeRTOS/Source/timers.c **** 			}
 921:Middlewares/Third_Party/FreeRTOS/Source/timers.c **** 			#endif
 922:Middlewares/Third_Party/FreeRTOS/Source/timers.c **** 
 923:Middlewares/Third_Party/FreeRTOS/Source/timers.c **** 			#if ( configQUEUE_REGISTRY_SIZE > 0 )
 924:Middlewares/Third_Party/FreeRTOS/Source/timers.c **** 			{
 925:Middlewares/Third_Party/FreeRTOS/Source/timers.c **** 				if( xTimerQueue != NULL )
 184              		.loc 1 925 5 is_stmt 1 view .LVU51
 185              		.loc 1 925 7 is_stmt 0 view .LVU52
 186 0034 10B1     		cbz	r0, .L13
 926:Middlewares/Third_Party/FreeRTOS/Source/timers.c **** 				{
 927:Middlewares/Third_Party/FreeRTOS/Source/timers.c **** 					vQueueAddToRegistry( xTimerQueue, "TmrQ" );
 187              		.loc 1 927 6 is_stmt 1 view .LVU53
 188 0036 0B49     		ldr	r1, .L18+28
 189 0038 FFF7FEFF 		bl	vQueueAddToRegistry
 190              	.LVL16:
 191              	.L13:
 928:Middlewares/Third_Party/FreeRTOS/Source/timers.c **** 				}
 929:Middlewares/Third_Party/FreeRTOS/Source/timers.c **** 				else
ARM GAS  /tmp/ccofPfel.s 			page 21


 930:Middlewares/Third_Party/FreeRTOS/Source/timers.c **** 				{
 931:Middlewares/Third_Party/FreeRTOS/Source/timers.c **** 					mtCOVERAGE_TEST_MARKER();
 932:Middlewares/Third_Party/FreeRTOS/Source/timers.c **** 				}
 933:Middlewares/Third_Party/FreeRTOS/Source/timers.c **** 			}
 934:Middlewares/Third_Party/FreeRTOS/Source/timers.c **** 			#endif /* configQUEUE_REGISTRY_SIZE */
 935:Middlewares/Third_Party/FreeRTOS/Source/timers.c **** 		}
 936:Middlewares/Third_Party/FreeRTOS/Source/timers.c **** 		else
 937:Middlewares/Third_Party/FreeRTOS/Source/timers.c **** 		{
 938:Middlewares/Third_Party/FreeRTOS/Source/timers.c **** 			mtCOVERAGE_TEST_MARKER();
 192              		.loc 1 938 28 view .LVU54
 939:Middlewares/Third_Party/FreeRTOS/Source/timers.c **** 		}
 940:Middlewares/Third_Party/FreeRTOS/Source/timers.c **** 	}
 941:Middlewares/Third_Party/FreeRTOS/Source/timers.c **** 	taskEXIT_CRITICAL();
 193              		.loc 1 941 2 view .LVU55
 942:Middlewares/Third_Party/FreeRTOS/Source/timers.c **** }
 194              		.loc 1 942 1 is_stmt 0 view .LVU56
 195 003c 03B0     		add	sp, sp, #12
 196              		.cfi_def_cfa_offset 20
 197              		@ sp needed
 198 003e BDE8F040 		pop	{r4, r5, r6, r7, lr}
 199              		.cfi_restore 14
 200              		.cfi_restore 7
 201              		.cfi_restore 6
 202              		.cfi_restore 5
 203              		.cfi_restore 4
 204              		.cfi_def_cfa_offset 0
 941:Middlewares/Third_Party/FreeRTOS/Source/timers.c **** }
 205              		.loc 1 941 2 view .LVU57
 206 0042 FFF7FEBF 		b	vPortExitCritical
 207              	.LVL17:
 208              	.L19:
 209 0046 00BF     		.align	2
 210              	.L18:
 211 0048 00000000 		.word	xTimerQueue
 212 004c 00000000 		.word	xActiveTimerList1
 213 0050 00000000 		.word	xActiveTimerList2
 214 0054 00000000 		.word	pxCurrentTimerList
 215 0058 00000000 		.word	pxOverflowTimerList
 216 005c 00000000 		.word	ucStaticTimerQueueStorage.1
 217 0060 00000000 		.word	xStaticTimerQueue.0
 218 0064 00000000 		.word	.LC0
 219              		.cfi_endproc
 220              	.LFE21:
 222              		.section	.rodata.xTimerCreateTimerTask.str1.1,"aMS",%progbits,1
 223              	.LC1:
 224 0000 546D7220 		.ascii	"Tmr Svc\000"
 224      53766300 
 225              		.section	.text.xTimerCreateTimerTask,"ax",%progbits
 226              		.align	1
 227              		.global	xTimerCreateTimerTask
 228              		.syntax unified
 229              		.thumb
 230              		.thumb_func
 232              	xTimerCreateTimerTask:
 233              	.LFB4:
 224:Middlewares/Third_Party/FreeRTOS/Source/timers.c **** BaseType_t xReturn = pdFAIL;
 234              		.loc 1 224 1 is_stmt 1 view -0
ARM GAS  /tmp/ccofPfel.s 			page 22


 235              		.cfi_startproc
 236              		@ args = 0, pretend = 0, frame = 16
 237              		@ frame_needed = 0, uses_anonymous_args = 0
 225:Middlewares/Third_Party/FreeRTOS/Source/timers.c **** 
 238              		.loc 1 225 1 view .LVU59
 239              	.LVL18:
 231:Middlewares/Third_Party/FreeRTOS/Source/timers.c **** 
 240              		.loc 1 231 2 view .LVU60
 224:Middlewares/Third_Party/FreeRTOS/Source/timers.c **** BaseType_t xReturn = pdFAIL;
 241              		.loc 1 224 1 is_stmt 0 view .LVU61
 242 0000 10B5     		push	{r4, lr}
 243              		.cfi_def_cfa_offset 8
 244              		.cfi_offset 4, -8
 245              		.cfi_offset 14, -4
 246 0002 88B0     		sub	sp, sp, #32
 247              		.cfi_def_cfa_offset 40
 231:Middlewares/Third_Party/FreeRTOS/Source/timers.c **** 
 248              		.loc 1 231 2 view .LVU62
 249 0004 FFF7FEFF 		bl	prvCheckForValidListAndQueue
 250              	.LVL19:
 233:Middlewares/Third_Party/FreeRTOS/Source/timers.c **** 	{
 251              		.loc 1 233 2 is_stmt 1 view .LVU63
 233:Middlewares/Third_Party/FreeRTOS/Source/timers.c **** 	{
 252              		.loc 1 233 18 is_stmt 0 view .LVU64
 253 0008 124B     		ldr	r3, .L31
 233:Middlewares/Third_Party/FreeRTOS/Source/timers.c **** 	{
 254              		.loc 1 233 4 view .LVU65
 255 000a 1B68     		ldr	r3, [r3]
 256 000c B3B1     		cbz	r3, .L21
 257              	.LBB46:
 237:Middlewares/Third_Party/FreeRTOS/Source/timers.c **** 			StackType_t *pxTimerTaskStackBuffer = NULL;
 258              		.loc 1 237 4 is_stmt 1 view .LVU66
 237:Middlewares/Third_Party/FreeRTOS/Source/timers.c **** 			StackType_t *pxTimerTaskStackBuffer = NULL;
 259              		.loc 1 237 18 is_stmt 0 view .LVU67
 260 000e 0024     		movs	r4, #0
 241:Middlewares/Third_Party/FreeRTOS/Source/timers.c **** 			xTimerTaskHandle = xTaskCreateStatic(	prvTimerTask,
 261              		.loc 1 241 4 view .LVU68
 262 0010 07AA     		add	r2, sp, #28
 263 0012 06A9     		add	r1, sp, #24
 264 0014 05A8     		add	r0, sp, #20
 238:Middlewares/Third_Party/FreeRTOS/Source/timers.c **** 			uint32_t ulTimerTaskStackSize;
 265              		.loc 1 238 17 view .LVU69
 266 0016 CDE90544 		strd	r4, r4, [sp, #20]
 239:Middlewares/Third_Party/FreeRTOS/Source/timers.c **** 
 267              		.loc 1 239 4 is_stmt 1 view .LVU70
 241:Middlewares/Third_Party/FreeRTOS/Source/timers.c **** 			xTimerTaskHandle = xTaskCreateStatic(	prvTimerTask,
 268              		.loc 1 241 4 view .LVU71
 269 001a FFF7FEFF 		bl	vApplicationGetTimerTaskMemory
 270              	.LVL20:
 242:Middlewares/Third_Party/FreeRTOS/Source/timers.c **** 													configTIMER_SERVICE_TASK_NAME,
 271              		.loc 1 242 4 view .LVU72
 242:Middlewares/Third_Party/FreeRTOS/Source/timers.c **** 													configTIMER_SERVICE_TASK_NAME,
 272              		.loc 1 242 23 is_stmt 0 view .LVU73
 273 001e 059B     		ldr	r3, [sp, #20]
 274 0020 079A     		ldr	r2, [sp, #28]
 275 0022 0293     		str	r3, [sp, #8]
 276 0024 069B     		ldr	r3, [sp, #24]
ARM GAS  /tmp/ccofPfel.s 			page 23


 277 0026 0C49     		ldr	r1, .L31+4
 278 0028 0193     		str	r3, [sp, #4]
 279 002a 0223     		movs	r3, #2
 280 002c 0B48     		ldr	r0, .L31+8
 281 002e 0093     		str	r3, [sp]
 282 0030 2346     		mov	r3, r4
 283 0032 FFF7FEFF 		bl	xTaskCreateStatic
 284              	.LVL21:
 242:Middlewares/Third_Party/FreeRTOS/Source/timers.c **** 													configTIMER_SERVICE_TASK_NAME,
 285              		.loc 1 242 21 view .LVU74
 286 0036 0A4B     		ldr	r3, .L31+12
 287 0038 1860     		str	r0, [r3]
 250:Middlewares/Third_Party/FreeRTOS/Source/timers.c **** 			{
 288              		.loc 1 250 4 is_stmt 1 view .LVU75
 250:Middlewares/Third_Party/FreeRTOS/Source/timers.c **** 			{
 289              		.loc 1 250 6 is_stmt 0 view .LVU76
 290 003a 40B9     		cbnz	r0, .L30
 291              	.L21:
 292              	.LVL22:
 250:Middlewares/Third_Party/FreeRTOS/Source/timers.c **** 			{
 293              		.loc 1 250 6 view .LVU77
 294              	.LBE46:
 271:Middlewares/Third_Party/FreeRTOS/Source/timers.c **** 	return xReturn;
 295              		.loc 1 271 2 is_stmt 1 view .LVU78
 296              	.LBB47:
 297              	.LBI47:
 298              		.file 2 "Middlewares/Third_Party/FreeRTOS/Source/portable/GCC/ARM_CM3/portmacro.h"
   1:Middlewares/Third_Party/FreeRTOS/Source/portable/GCC/ARM_CM3/portmacro.h **** /*
   2:Middlewares/Third_Party/FreeRTOS/Source/portable/GCC/ARM_CM3/portmacro.h ****  * FreeRTOS Kernel V10.0.1
   3:Middlewares/Third_Party/FreeRTOS/Source/portable/GCC/ARM_CM3/portmacro.h ****  * Copyright (C) 2017 Amazon.com, Inc. or its affiliates.  All Rights Reserved.
   4:Middlewares/Third_Party/FreeRTOS/Source/portable/GCC/ARM_CM3/portmacro.h ****  *
   5:Middlewares/Third_Party/FreeRTOS/Source/portable/GCC/ARM_CM3/portmacro.h ****  * Permission is hereby granted, free of charge, to any person obtaining a copy of
   6:Middlewares/Third_Party/FreeRTOS/Source/portable/GCC/ARM_CM3/portmacro.h ****  * this software and associated documentation files (the "Software"), to deal in
   7:Middlewares/Third_Party/FreeRTOS/Source/portable/GCC/ARM_CM3/portmacro.h ****  * the Software without restriction, including without limitation the rights to
   8:Middlewares/Third_Party/FreeRTOS/Source/portable/GCC/ARM_CM3/portmacro.h ****  * use, copy, modify, merge, publish, distribute, sublicense, and/or sell copies of
   9:Middlewares/Third_Party/FreeRTOS/Source/portable/GCC/ARM_CM3/portmacro.h ****  * the Software, and to permit persons to whom the Software is furnished to do so,
  10:Middlewares/Third_Party/FreeRTOS/Source/portable/GCC/ARM_CM3/portmacro.h ****  * subject to the following conditions:
  11:Middlewares/Third_Party/FreeRTOS/Source/portable/GCC/ARM_CM3/portmacro.h ****  *
  12:Middlewares/Third_Party/FreeRTOS/Source/portable/GCC/ARM_CM3/portmacro.h ****  * The above copyright notice and this permission notice shall be included in all
  13:Middlewares/Third_Party/FreeRTOS/Source/portable/GCC/ARM_CM3/portmacro.h ****  * copies or substantial portions of the Software.
  14:Middlewares/Third_Party/FreeRTOS/Source/portable/GCC/ARM_CM3/portmacro.h ****  *
  15:Middlewares/Third_Party/FreeRTOS/Source/portable/GCC/ARM_CM3/portmacro.h ****  * THE SOFTWARE IS PROVIDED "AS IS", WITHOUT WARRANTY OF ANY KIND, EXPRESS OR
  16:Middlewares/Third_Party/FreeRTOS/Source/portable/GCC/ARM_CM3/portmacro.h ****  * IMPLIED, INCLUDING BUT NOT LIMITED TO THE WARRANTIES OF MERCHANTABILITY, FITNESS
  17:Middlewares/Third_Party/FreeRTOS/Source/portable/GCC/ARM_CM3/portmacro.h ****  * FOR A PARTICULAR PURPOSE AND NONINFRINGEMENT. IN NO EVENT SHALL THE AUTHORS OR
  18:Middlewares/Third_Party/FreeRTOS/Source/portable/GCC/ARM_CM3/portmacro.h ****  * COPYRIGHT HOLDERS BE LIABLE FOR ANY CLAIM, DAMAGES OR OTHER LIABILITY, WHETHER
  19:Middlewares/Third_Party/FreeRTOS/Source/portable/GCC/ARM_CM3/portmacro.h ****  * IN AN ACTION OF CONTRACT, TORT OR OTHERWISE, ARISING FROM, OUT OF OR IN
  20:Middlewares/Third_Party/FreeRTOS/Source/portable/GCC/ARM_CM3/portmacro.h ****  * CONNECTION WITH THE SOFTWARE OR THE USE OR OTHER DEALINGS IN THE SOFTWARE.
  21:Middlewares/Third_Party/FreeRTOS/Source/portable/GCC/ARM_CM3/portmacro.h ****  *
  22:Middlewares/Third_Party/FreeRTOS/Source/portable/GCC/ARM_CM3/portmacro.h ****  * http://www.FreeRTOS.org
  23:Middlewares/Third_Party/FreeRTOS/Source/portable/GCC/ARM_CM3/portmacro.h ****  * http://aws.amazon.com/freertos
  24:Middlewares/Third_Party/FreeRTOS/Source/portable/GCC/ARM_CM3/portmacro.h ****  *
  25:Middlewares/Third_Party/FreeRTOS/Source/portable/GCC/ARM_CM3/portmacro.h ****  * 1 tab == 4 spaces!
  26:Middlewares/Third_Party/FreeRTOS/Source/portable/GCC/ARM_CM3/portmacro.h ****  */
  27:Middlewares/Third_Party/FreeRTOS/Source/portable/GCC/ARM_CM3/portmacro.h **** 
  28:Middlewares/Third_Party/FreeRTOS/Source/portable/GCC/ARM_CM3/portmacro.h **** 
  29:Middlewares/Third_Party/FreeRTOS/Source/portable/GCC/ARM_CM3/portmacro.h **** #ifndef PORTMACRO_H
  30:Middlewares/Third_Party/FreeRTOS/Source/portable/GCC/ARM_CM3/portmacro.h **** #define PORTMACRO_H
ARM GAS  /tmp/ccofPfel.s 			page 24


  31:Middlewares/Third_Party/FreeRTOS/Source/portable/GCC/ARM_CM3/portmacro.h **** 
  32:Middlewares/Third_Party/FreeRTOS/Source/portable/GCC/ARM_CM3/portmacro.h **** #ifdef __cplusplus
  33:Middlewares/Third_Party/FreeRTOS/Source/portable/GCC/ARM_CM3/portmacro.h **** extern "C" {
  34:Middlewares/Third_Party/FreeRTOS/Source/portable/GCC/ARM_CM3/portmacro.h **** #endif
  35:Middlewares/Third_Party/FreeRTOS/Source/portable/GCC/ARM_CM3/portmacro.h **** 
  36:Middlewares/Third_Party/FreeRTOS/Source/portable/GCC/ARM_CM3/portmacro.h **** /*-----------------------------------------------------------
  37:Middlewares/Third_Party/FreeRTOS/Source/portable/GCC/ARM_CM3/portmacro.h ****  * Port specific definitions.
  38:Middlewares/Third_Party/FreeRTOS/Source/portable/GCC/ARM_CM3/portmacro.h ****  *
  39:Middlewares/Third_Party/FreeRTOS/Source/portable/GCC/ARM_CM3/portmacro.h ****  * The settings in this file configure FreeRTOS correctly for the
  40:Middlewares/Third_Party/FreeRTOS/Source/portable/GCC/ARM_CM3/portmacro.h ****  * given hardware and compiler.
  41:Middlewares/Third_Party/FreeRTOS/Source/portable/GCC/ARM_CM3/portmacro.h ****  *
  42:Middlewares/Third_Party/FreeRTOS/Source/portable/GCC/ARM_CM3/portmacro.h ****  * These settings should not be altered.
  43:Middlewares/Third_Party/FreeRTOS/Source/portable/GCC/ARM_CM3/portmacro.h ****  *-----------------------------------------------------------
  44:Middlewares/Third_Party/FreeRTOS/Source/portable/GCC/ARM_CM3/portmacro.h ****  */
  45:Middlewares/Third_Party/FreeRTOS/Source/portable/GCC/ARM_CM3/portmacro.h **** 
  46:Middlewares/Third_Party/FreeRTOS/Source/portable/GCC/ARM_CM3/portmacro.h **** /* Type definitions. */
  47:Middlewares/Third_Party/FreeRTOS/Source/portable/GCC/ARM_CM3/portmacro.h **** #define portCHAR		char
  48:Middlewares/Third_Party/FreeRTOS/Source/portable/GCC/ARM_CM3/portmacro.h **** #define portFLOAT		float
  49:Middlewares/Third_Party/FreeRTOS/Source/portable/GCC/ARM_CM3/portmacro.h **** #define portDOUBLE		double
  50:Middlewares/Third_Party/FreeRTOS/Source/portable/GCC/ARM_CM3/portmacro.h **** #define portLONG		long
  51:Middlewares/Third_Party/FreeRTOS/Source/portable/GCC/ARM_CM3/portmacro.h **** #define portSHORT		short
  52:Middlewares/Third_Party/FreeRTOS/Source/portable/GCC/ARM_CM3/portmacro.h **** #define portSTACK_TYPE	uint32_t
  53:Middlewares/Third_Party/FreeRTOS/Source/portable/GCC/ARM_CM3/portmacro.h **** #define portBASE_TYPE	long
  54:Middlewares/Third_Party/FreeRTOS/Source/portable/GCC/ARM_CM3/portmacro.h **** 
  55:Middlewares/Third_Party/FreeRTOS/Source/portable/GCC/ARM_CM3/portmacro.h **** typedef portSTACK_TYPE StackType_t;
  56:Middlewares/Third_Party/FreeRTOS/Source/portable/GCC/ARM_CM3/portmacro.h **** typedef long BaseType_t;
  57:Middlewares/Third_Party/FreeRTOS/Source/portable/GCC/ARM_CM3/portmacro.h **** typedef unsigned long UBaseType_t;
  58:Middlewares/Third_Party/FreeRTOS/Source/portable/GCC/ARM_CM3/portmacro.h **** 
  59:Middlewares/Third_Party/FreeRTOS/Source/portable/GCC/ARM_CM3/portmacro.h **** #if( configUSE_16_BIT_TICKS == 1 )
  60:Middlewares/Third_Party/FreeRTOS/Source/portable/GCC/ARM_CM3/portmacro.h **** 	typedef uint16_t TickType_t;
  61:Middlewares/Third_Party/FreeRTOS/Source/portable/GCC/ARM_CM3/portmacro.h **** 	#define portMAX_DELAY ( TickType_t ) 0xffff
  62:Middlewares/Third_Party/FreeRTOS/Source/portable/GCC/ARM_CM3/portmacro.h **** #else
  63:Middlewares/Third_Party/FreeRTOS/Source/portable/GCC/ARM_CM3/portmacro.h **** 	typedef uint32_t TickType_t;
  64:Middlewares/Third_Party/FreeRTOS/Source/portable/GCC/ARM_CM3/portmacro.h **** 	#define portMAX_DELAY ( TickType_t ) 0xffffffffUL
  65:Middlewares/Third_Party/FreeRTOS/Source/portable/GCC/ARM_CM3/portmacro.h **** 
  66:Middlewares/Third_Party/FreeRTOS/Source/portable/GCC/ARM_CM3/portmacro.h **** 	/* 32-bit tick type on a 32-bit architecture, so reads of the tick count do
  67:Middlewares/Third_Party/FreeRTOS/Source/portable/GCC/ARM_CM3/portmacro.h **** 	not need to be guarded with a critical section. */
  68:Middlewares/Third_Party/FreeRTOS/Source/portable/GCC/ARM_CM3/portmacro.h **** 	#define portTICK_TYPE_IS_ATOMIC 1
  69:Middlewares/Third_Party/FreeRTOS/Source/portable/GCC/ARM_CM3/portmacro.h **** #endif
  70:Middlewares/Third_Party/FreeRTOS/Source/portable/GCC/ARM_CM3/portmacro.h **** /*-----------------------------------------------------------*/
  71:Middlewares/Third_Party/FreeRTOS/Source/portable/GCC/ARM_CM3/portmacro.h **** 
  72:Middlewares/Third_Party/FreeRTOS/Source/portable/GCC/ARM_CM3/portmacro.h **** /* Architecture specifics. */
  73:Middlewares/Third_Party/FreeRTOS/Source/portable/GCC/ARM_CM3/portmacro.h **** #define portSTACK_GROWTH			( -1 )
  74:Middlewares/Third_Party/FreeRTOS/Source/portable/GCC/ARM_CM3/portmacro.h **** #define portTICK_PERIOD_MS			( ( TickType_t ) 1000 / configTICK_RATE_HZ )
  75:Middlewares/Third_Party/FreeRTOS/Source/portable/GCC/ARM_CM3/portmacro.h **** #define portBYTE_ALIGNMENT			8
  76:Middlewares/Third_Party/FreeRTOS/Source/portable/GCC/ARM_CM3/portmacro.h **** /*-----------------------------------------------------------*/
  77:Middlewares/Third_Party/FreeRTOS/Source/portable/GCC/ARM_CM3/portmacro.h **** 
  78:Middlewares/Third_Party/FreeRTOS/Source/portable/GCC/ARM_CM3/portmacro.h **** /* Scheduler utilities. */
  79:Middlewares/Third_Party/FreeRTOS/Source/portable/GCC/ARM_CM3/portmacro.h **** #define portYIELD() 															\
  80:Middlewares/Third_Party/FreeRTOS/Source/portable/GCC/ARM_CM3/portmacro.h **** {																				\
  81:Middlewares/Third_Party/FreeRTOS/Source/portable/GCC/ARM_CM3/portmacro.h **** 	/* Set a PendSV to request a context switch. */								\
  82:Middlewares/Third_Party/FreeRTOS/Source/portable/GCC/ARM_CM3/portmacro.h **** 	portNVIC_INT_CTRL_REG = portNVIC_PENDSVSET_BIT;								\
  83:Middlewares/Third_Party/FreeRTOS/Source/portable/GCC/ARM_CM3/portmacro.h **** 																				\
  84:Middlewares/Third_Party/FreeRTOS/Source/portable/GCC/ARM_CM3/portmacro.h **** 	/* Barriers are normally not required but do ensure the code is completely	\
  85:Middlewares/Third_Party/FreeRTOS/Source/portable/GCC/ARM_CM3/portmacro.h **** 	within the specified behaviour for the architecture. */						\
  86:Middlewares/Third_Party/FreeRTOS/Source/portable/GCC/ARM_CM3/portmacro.h **** 	__asm volatile( "dsb" ::: "memory" );										\
  87:Middlewares/Third_Party/FreeRTOS/Source/portable/GCC/ARM_CM3/portmacro.h **** 	__asm volatile( "isb" );													\
ARM GAS  /tmp/ccofPfel.s 			page 25


  88:Middlewares/Third_Party/FreeRTOS/Source/portable/GCC/ARM_CM3/portmacro.h **** }
  89:Middlewares/Third_Party/FreeRTOS/Source/portable/GCC/ARM_CM3/portmacro.h **** 
  90:Middlewares/Third_Party/FreeRTOS/Source/portable/GCC/ARM_CM3/portmacro.h **** #define portNVIC_INT_CTRL_REG		( * ( ( volatile uint32_t * ) 0xe000ed04 ) )
  91:Middlewares/Third_Party/FreeRTOS/Source/portable/GCC/ARM_CM3/portmacro.h **** #define portNVIC_PENDSVSET_BIT		( 1UL << 28UL )
  92:Middlewares/Third_Party/FreeRTOS/Source/portable/GCC/ARM_CM3/portmacro.h **** #define portEND_SWITCHING_ISR( xSwitchRequired ) if( xSwitchRequired != pdFALSE ) portYIELD()
  93:Middlewares/Third_Party/FreeRTOS/Source/portable/GCC/ARM_CM3/portmacro.h **** #define portYIELD_FROM_ISR( x ) portEND_SWITCHING_ISR( x )
  94:Middlewares/Third_Party/FreeRTOS/Source/portable/GCC/ARM_CM3/portmacro.h **** /*-----------------------------------------------------------*/
  95:Middlewares/Third_Party/FreeRTOS/Source/portable/GCC/ARM_CM3/portmacro.h **** 
  96:Middlewares/Third_Party/FreeRTOS/Source/portable/GCC/ARM_CM3/portmacro.h **** /* Critical section management. */
  97:Middlewares/Third_Party/FreeRTOS/Source/portable/GCC/ARM_CM3/portmacro.h **** extern void vPortEnterCritical( void );
  98:Middlewares/Third_Party/FreeRTOS/Source/portable/GCC/ARM_CM3/portmacro.h **** extern void vPortExitCritical( void );
  99:Middlewares/Third_Party/FreeRTOS/Source/portable/GCC/ARM_CM3/portmacro.h **** #define portSET_INTERRUPT_MASK_FROM_ISR()		ulPortRaiseBASEPRI()
 100:Middlewares/Third_Party/FreeRTOS/Source/portable/GCC/ARM_CM3/portmacro.h **** #define portCLEAR_INTERRUPT_MASK_FROM_ISR(x)	vPortSetBASEPRI(x)
 101:Middlewares/Third_Party/FreeRTOS/Source/portable/GCC/ARM_CM3/portmacro.h **** #define portDISABLE_INTERRUPTS()				vPortRaiseBASEPRI()
 102:Middlewares/Third_Party/FreeRTOS/Source/portable/GCC/ARM_CM3/portmacro.h **** #define portENABLE_INTERRUPTS()					vPortSetBASEPRI(0)
 103:Middlewares/Third_Party/FreeRTOS/Source/portable/GCC/ARM_CM3/portmacro.h **** #define portENTER_CRITICAL()					vPortEnterCritical()
 104:Middlewares/Third_Party/FreeRTOS/Source/portable/GCC/ARM_CM3/portmacro.h **** #define portEXIT_CRITICAL()						vPortExitCritical()
 105:Middlewares/Third_Party/FreeRTOS/Source/portable/GCC/ARM_CM3/portmacro.h **** 
 106:Middlewares/Third_Party/FreeRTOS/Source/portable/GCC/ARM_CM3/portmacro.h **** /*-----------------------------------------------------------*/
 107:Middlewares/Third_Party/FreeRTOS/Source/portable/GCC/ARM_CM3/portmacro.h **** 
 108:Middlewares/Third_Party/FreeRTOS/Source/portable/GCC/ARM_CM3/portmacro.h **** /* Task function macros as described on the FreeRTOS.org WEB site.  These are
 109:Middlewares/Third_Party/FreeRTOS/Source/portable/GCC/ARM_CM3/portmacro.h **** not necessary for to use this port.  They are defined so the common demo files
 110:Middlewares/Third_Party/FreeRTOS/Source/portable/GCC/ARM_CM3/portmacro.h **** (which build with all the ports) will build. */
 111:Middlewares/Third_Party/FreeRTOS/Source/portable/GCC/ARM_CM3/portmacro.h **** #define portTASK_FUNCTION_PROTO( vFunction, pvParameters ) void vFunction( void *pvParameters )
 112:Middlewares/Third_Party/FreeRTOS/Source/portable/GCC/ARM_CM3/portmacro.h **** #define portTASK_FUNCTION( vFunction, pvParameters ) void vFunction( void *pvParameters )
 113:Middlewares/Third_Party/FreeRTOS/Source/portable/GCC/ARM_CM3/portmacro.h **** /*-----------------------------------------------------------*/
 114:Middlewares/Third_Party/FreeRTOS/Source/portable/GCC/ARM_CM3/portmacro.h **** 
 115:Middlewares/Third_Party/FreeRTOS/Source/portable/GCC/ARM_CM3/portmacro.h **** /* Tickless idle/low power functionality. */
 116:Middlewares/Third_Party/FreeRTOS/Source/portable/GCC/ARM_CM3/portmacro.h **** #ifndef portSUPPRESS_TICKS_AND_SLEEP
 117:Middlewares/Third_Party/FreeRTOS/Source/portable/GCC/ARM_CM3/portmacro.h **** 	extern void vPortSuppressTicksAndSleep( TickType_t xExpectedIdleTime );
 118:Middlewares/Third_Party/FreeRTOS/Source/portable/GCC/ARM_CM3/portmacro.h **** 	#define portSUPPRESS_TICKS_AND_SLEEP( xExpectedIdleTime ) vPortSuppressTicksAndSleep( xExpectedIdl
 119:Middlewares/Third_Party/FreeRTOS/Source/portable/GCC/ARM_CM3/portmacro.h **** #endif
 120:Middlewares/Third_Party/FreeRTOS/Source/portable/GCC/ARM_CM3/portmacro.h **** /*-----------------------------------------------------------*/
 121:Middlewares/Third_Party/FreeRTOS/Source/portable/GCC/ARM_CM3/portmacro.h **** 
 122:Middlewares/Third_Party/FreeRTOS/Source/portable/GCC/ARM_CM3/portmacro.h **** /* Architecture specific optimisations. */
 123:Middlewares/Third_Party/FreeRTOS/Source/portable/GCC/ARM_CM3/portmacro.h **** #ifndef configUSE_PORT_OPTIMISED_TASK_SELECTION
 124:Middlewares/Third_Party/FreeRTOS/Source/portable/GCC/ARM_CM3/portmacro.h **** 	#define configUSE_PORT_OPTIMISED_TASK_SELECTION 1
 125:Middlewares/Third_Party/FreeRTOS/Source/portable/GCC/ARM_CM3/portmacro.h **** #endif
 126:Middlewares/Third_Party/FreeRTOS/Source/portable/GCC/ARM_CM3/portmacro.h **** 
 127:Middlewares/Third_Party/FreeRTOS/Source/portable/GCC/ARM_CM3/portmacro.h **** #if configUSE_PORT_OPTIMISED_TASK_SELECTION == 1
 128:Middlewares/Third_Party/FreeRTOS/Source/portable/GCC/ARM_CM3/portmacro.h **** 
 129:Middlewares/Third_Party/FreeRTOS/Source/portable/GCC/ARM_CM3/portmacro.h **** 	/* Generic helper function. */
 130:Middlewares/Third_Party/FreeRTOS/Source/portable/GCC/ARM_CM3/portmacro.h **** 	__attribute__( ( always_inline ) ) static inline uint8_t ucPortCountLeadingZeros( uint32_t ulBitma
 131:Middlewares/Third_Party/FreeRTOS/Source/portable/GCC/ARM_CM3/portmacro.h **** 	{
 132:Middlewares/Third_Party/FreeRTOS/Source/portable/GCC/ARM_CM3/portmacro.h **** 	uint8_t ucReturn;
 133:Middlewares/Third_Party/FreeRTOS/Source/portable/GCC/ARM_CM3/portmacro.h **** 
 134:Middlewares/Third_Party/FreeRTOS/Source/portable/GCC/ARM_CM3/portmacro.h **** 		__asm volatile ( "clz %0, %1" : "=r" ( ucReturn ) : "r" ( ulBitmap ) : "memory" );
 135:Middlewares/Third_Party/FreeRTOS/Source/portable/GCC/ARM_CM3/portmacro.h **** 		return ucReturn;
 136:Middlewares/Third_Party/FreeRTOS/Source/portable/GCC/ARM_CM3/portmacro.h **** 	}
 137:Middlewares/Third_Party/FreeRTOS/Source/portable/GCC/ARM_CM3/portmacro.h **** 
 138:Middlewares/Third_Party/FreeRTOS/Source/portable/GCC/ARM_CM3/portmacro.h **** 	/* Check the configuration. */
 139:Middlewares/Third_Party/FreeRTOS/Source/portable/GCC/ARM_CM3/portmacro.h **** 	#if( configMAX_PRIORITIES > 32 )
 140:Middlewares/Third_Party/FreeRTOS/Source/portable/GCC/ARM_CM3/portmacro.h **** 		#error configUSE_PORT_OPTIMISED_TASK_SELECTION can only be set to 1 when configMAX_PRIORITIES is 
 141:Middlewares/Third_Party/FreeRTOS/Source/portable/GCC/ARM_CM3/portmacro.h **** 	#endif
 142:Middlewares/Third_Party/FreeRTOS/Source/portable/GCC/ARM_CM3/portmacro.h **** 
 143:Middlewares/Third_Party/FreeRTOS/Source/portable/GCC/ARM_CM3/portmacro.h **** 	/* Store/clear the ready priorities in a bit map. */
 144:Middlewares/Third_Party/FreeRTOS/Source/portable/GCC/ARM_CM3/portmacro.h **** 	#define portRECORD_READY_PRIORITY( uxPriority, uxReadyPriorities ) ( uxReadyPriorities ) |= ( 1UL 
ARM GAS  /tmp/ccofPfel.s 			page 26


 145:Middlewares/Third_Party/FreeRTOS/Source/portable/GCC/ARM_CM3/portmacro.h **** 	#define portRESET_READY_PRIORITY( uxPriority, uxReadyPriorities ) ( uxReadyPriorities ) &= ~( 1UL 
 146:Middlewares/Third_Party/FreeRTOS/Source/portable/GCC/ARM_CM3/portmacro.h **** 
 147:Middlewares/Third_Party/FreeRTOS/Source/portable/GCC/ARM_CM3/portmacro.h **** 	/*-----------------------------------------------------------*/
 148:Middlewares/Third_Party/FreeRTOS/Source/portable/GCC/ARM_CM3/portmacro.h **** 
 149:Middlewares/Third_Party/FreeRTOS/Source/portable/GCC/ARM_CM3/portmacro.h **** 	#define portGET_HIGHEST_PRIORITY( uxTopPriority, uxReadyPriorities ) uxTopPriority = ( 31UL - ( ui
 150:Middlewares/Third_Party/FreeRTOS/Source/portable/GCC/ARM_CM3/portmacro.h **** 
 151:Middlewares/Third_Party/FreeRTOS/Source/portable/GCC/ARM_CM3/portmacro.h **** #endif /* configUSE_PORT_OPTIMISED_TASK_SELECTION */
 152:Middlewares/Third_Party/FreeRTOS/Source/portable/GCC/ARM_CM3/portmacro.h **** 
 153:Middlewares/Third_Party/FreeRTOS/Source/portable/GCC/ARM_CM3/portmacro.h **** /*-----------------------------------------------------------*/
 154:Middlewares/Third_Party/FreeRTOS/Source/portable/GCC/ARM_CM3/portmacro.h **** 
 155:Middlewares/Third_Party/FreeRTOS/Source/portable/GCC/ARM_CM3/portmacro.h **** #ifdef configASSERT
 156:Middlewares/Third_Party/FreeRTOS/Source/portable/GCC/ARM_CM3/portmacro.h **** 	void vPortValidateInterruptPriority( void );
 157:Middlewares/Third_Party/FreeRTOS/Source/portable/GCC/ARM_CM3/portmacro.h **** 	#define portASSERT_IF_INTERRUPT_PRIORITY_INVALID() 	vPortValidateInterruptPriority()
 158:Middlewares/Third_Party/FreeRTOS/Source/portable/GCC/ARM_CM3/portmacro.h **** #endif
 159:Middlewares/Third_Party/FreeRTOS/Source/portable/GCC/ARM_CM3/portmacro.h **** 
 160:Middlewares/Third_Party/FreeRTOS/Source/portable/GCC/ARM_CM3/portmacro.h **** /* portNOP() is not required by this port. */
 161:Middlewares/Third_Party/FreeRTOS/Source/portable/GCC/ARM_CM3/portmacro.h **** #define portNOP()
 162:Middlewares/Third_Party/FreeRTOS/Source/portable/GCC/ARM_CM3/portmacro.h **** 
 163:Middlewares/Third_Party/FreeRTOS/Source/portable/GCC/ARM_CM3/portmacro.h **** #define portINLINE	__inline
 164:Middlewares/Third_Party/FreeRTOS/Source/portable/GCC/ARM_CM3/portmacro.h **** 
 165:Middlewares/Third_Party/FreeRTOS/Source/portable/GCC/ARM_CM3/portmacro.h **** #ifndef portFORCE_INLINE
 166:Middlewares/Third_Party/FreeRTOS/Source/portable/GCC/ARM_CM3/portmacro.h **** 	#define portFORCE_INLINE inline __attribute__(( always_inline))
 167:Middlewares/Third_Party/FreeRTOS/Source/portable/GCC/ARM_CM3/portmacro.h **** #endif
 168:Middlewares/Third_Party/FreeRTOS/Source/portable/GCC/ARM_CM3/portmacro.h **** 
 169:Middlewares/Third_Party/FreeRTOS/Source/portable/GCC/ARM_CM3/portmacro.h **** portFORCE_INLINE static BaseType_t xPortIsInsideInterrupt( void )
 170:Middlewares/Third_Party/FreeRTOS/Source/portable/GCC/ARM_CM3/portmacro.h **** {
 171:Middlewares/Third_Party/FreeRTOS/Source/portable/GCC/ARM_CM3/portmacro.h **** uint32_t ulCurrentInterrupt;
 172:Middlewares/Third_Party/FreeRTOS/Source/portable/GCC/ARM_CM3/portmacro.h **** BaseType_t xReturn;
 173:Middlewares/Third_Party/FreeRTOS/Source/portable/GCC/ARM_CM3/portmacro.h **** 
 174:Middlewares/Third_Party/FreeRTOS/Source/portable/GCC/ARM_CM3/portmacro.h **** 	/* Obtain the number of the currently executing interrupt. */
 175:Middlewares/Third_Party/FreeRTOS/Source/portable/GCC/ARM_CM3/portmacro.h **** 	__asm volatile( "mrs %0, ipsr" : "=r"( ulCurrentInterrupt ) :: "memory" );
 176:Middlewares/Third_Party/FreeRTOS/Source/portable/GCC/ARM_CM3/portmacro.h **** 
 177:Middlewares/Third_Party/FreeRTOS/Source/portable/GCC/ARM_CM3/portmacro.h **** 	if( ulCurrentInterrupt == 0 )
 178:Middlewares/Third_Party/FreeRTOS/Source/portable/GCC/ARM_CM3/portmacro.h **** 	{
 179:Middlewares/Third_Party/FreeRTOS/Source/portable/GCC/ARM_CM3/portmacro.h **** 		xReturn = pdFALSE;
 180:Middlewares/Third_Party/FreeRTOS/Source/portable/GCC/ARM_CM3/portmacro.h **** 	}
 181:Middlewares/Third_Party/FreeRTOS/Source/portable/GCC/ARM_CM3/portmacro.h **** 	else
 182:Middlewares/Third_Party/FreeRTOS/Source/portable/GCC/ARM_CM3/portmacro.h **** 	{
 183:Middlewares/Third_Party/FreeRTOS/Source/portable/GCC/ARM_CM3/portmacro.h **** 		xReturn = pdTRUE;
 184:Middlewares/Third_Party/FreeRTOS/Source/portable/GCC/ARM_CM3/portmacro.h **** 	}
 185:Middlewares/Third_Party/FreeRTOS/Source/portable/GCC/ARM_CM3/portmacro.h **** 
 186:Middlewares/Third_Party/FreeRTOS/Source/portable/GCC/ARM_CM3/portmacro.h **** 	return xReturn;
 187:Middlewares/Third_Party/FreeRTOS/Source/portable/GCC/ARM_CM3/portmacro.h **** }
 188:Middlewares/Third_Party/FreeRTOS/Source/portable/GCC/ARM_CM3/portmacro.h **** 
 189:Middlewares/Third_Party/FreeRTOS/Source/portable/GCC/ARM_CM3/portmacro.h **** /*-----------------------------------------------------------*/
 190:Middlewares/Third_Party/FreeRTOS/Source/portable/GCC/ARM_CM3/portmacro.h **** 
 191:Middlewares/Third_Party/FreeRTOS/Source/portable/GCC/ARM_CM3/portmacro.h **** portFORCE_INLINE static void vPortRaiseBASEPRI( void )
 299              		.loc 2 191 30 view .LVU79
 300              	.LBB48:
 192:Middlewares/Third_Party/FreeRTOS/Source/portable/GCC/ARM_CM3/portmacro.h **** {
 193:Middlewares/Third_Party/FreeRTOS/Source/portable/GCC/ARM_CM3/portmacro.h **** uint32_t ulNewBASEPRI;
 301              		.loc 2 193 1 view .LVU80
 194:Middlewares/Third_Party/FreeRTOS/Source/portable/GCC/ARM_CM3/portmacro.h **** 
 195:Middlewares/Third_Party/FreeRTOS/Source/portable/GCC/ARM_CM3/portmacro.h **** 	__asm volatile
 302              		.loc 2 195 2 view .LVU81
 303              		.syntax unified
 304              	@ 195 "Middlewares/Third_Party/FreeRTOS/Source/portable/GCC/ARM_CM3/portmacro.h" 1
ARM GAS  /tmp/ccofPfel.s 			page 27


 305 003c 4FF05003 			mov r3, #80												
 306 0040 83F31188 		msr basepri, r3											
 307 0044 BFF36F8F 		isb														
 308 0048 BFF34F8F 		dsb														
 309              	
 310              	@ 0 "" 2
 311              	.LVL23:
 312              		.thumb
 313              		.syntax unified
 314              	.L23:
 315              		.loc 2 195 2 is_stmt 0 view .LVU82
 316              	.LBE48:
 317              	.LBE47:
 271:Middlewares/Third_Party/FreeRTOS/Source/timers.c **** 	return xReturn;
 318              		.loc 1 271 2 is_stmt 1 discriminator 1 view .LVU83
 271:Middlewares/Third_Party/FreeRTOS/Source/timers.c **** 	return xReturn;
 319              		.loc 1 271 2 discriminator 1 view .LVU84
 320 004c FEE7     		b	.L23
 321              	.LVL24:
 322              	.L30:
 273:Middlewares/Third_Party/FreeRTOS/Source/timers.c **** /*-----------------------------------------------------------*/
 323              		.loc 1 273 1 is_stmt 0 view .LVU85
 324 004e 0120     		movs	r0, #1
 325 0050 08B0     		add	sp, sp, #32
 326              		.cfi_def_cfa_offset 8
 327              		@ sp needed
 328 0052 10BD     		pop	{r4, pc}
 329              	.L32:
 330              		.align	2
 331              	.L31:
 332 0054 00000000 		.word	xTimerQueue
 333 0058 00000000 		.word	.LC1
 334 005c 00000000 		.word	prvTimerTask
 335 0060 00000000 		.word	xTimerTaskHandle
 336              		.cfi_endproc
 337              	.LFE4:
 339              		.section	.text.xTimerCreate,"ax",%progbits
 340              		.align	1
 341              		.global	xTimerCreate
 342              		.syntax unified
 343              		.thumb
 344              		.thumb_func
 346              	xTimerCreate:
 347              	.LVL25:
 348              	.LFB5:
 283:Middlewares/Third_Party/FreeRTOS/Source/timers.c **** 	Timer_t *pxNewTimer;
 349              		.loc 1 283 2 is_stmt 1 view -0
 350              		.cfi_startproc
 351              		@ args = 4, pretend = 0, frame = 0
 352              		@ frame_needed = 0, uses_anonymous_args = 0
 284:Middlewares/Third_Party/FreeRTOS/Source/timers.c **** 
 353              		.loc 1 284 2 view .LVU87
 286:Middlewares/Third_Party/FreeRTOS/Source/timers.c **** 
 354              		.loc 1 286 3 view .LVU88
 283:Middlewares/Third_Party/FreeRTOS/Source/timers.c **** 	Timer_t *pxNewTimer;
 355              		.loc 1 283 2 is_stmt 0 view .LVU89
 356 0000 2DE9F041 		push	{r4, r5, r6, r7, r8, lr}
ARM GAS  /tmp/ccofPfel.s 			page 28


 357              		.cfi_def_cfa_offset 24
 358              		.cfi_offset 4, -24
 359              		.cfi_offset 5, -20
 360              		.cfi_offset 6, -16
 361              		.cfi_offset 7, -12
 362              		.cfi_offset 8, -8
 363              		.cfi_offset 14, -4
 283:Middlewares/Third_Party/FreeRTOS/Source/timers.c **** 	Timer_t *pxNewTimer;
 364              		.loc 1 283 2 view .LVU90
 365 0004 8046     		mov	r8, r0
 286:Middlewares/Third_Party/FreeRTOS/Source/timers.c **** 
 366              		.loc 1 286 30 view .LVU91
 367 0006 3020     		movs	r0, #48
 368              	.LVL26:
 283:Middlewares/Third_Party/FreeRTOS/Source/timers.c **** 	Timer_t *pxNewTimer;
 369              		.loc 1 283 2 view .LVU92
 370 0008 0D46     		mov	r5, r1
 371 000a 1746     		mov	r7, r2
 372 000c 1E46     		mov	r6, r3
 286:Middlewares/Third_Party/FreeRTOS/Source/timers.c **** 
 373              		.loc 1 286 30 view .LVU93
 374 000e FFF7FEFF 		bl	pvPortMalloc
 375              	.LVL27:
 288:Middlewares/Third_Party/FreeRTOS/Source/timers.c **** 		{
 376              		.loc 1 288 3 is_stmt 1 view .LVU94
 288:Middlewares/Third_Party/FreeRTOS/Source/timers.c **** 		{
 377              		.loc 1 288 5 is_stmt 0 view .LVU95
 378 0012 0446     		mov	r4, r0
 379 0014 C0B1     		cbz	r0, .L33
 290:Middlewares/Third_Party/FreeRTOS/Source/timers.c **** 
 380              		.loc 1 290 4 is_stmt 1 view .LVU96
 381              	.LVL28:
 382              	.LBB57:
 383              	.LBI57:
 352:Middlewares/Third_Party/FreeRTOS/Source/timers.c **** 									const TickType_t xTimerPeriodInTicks,
 384              		.loc 1 352 13 view .LVU97
 385              	.LBB58:
 360:Middlewares/Third_Party/FreeRTOS/Source/timers.c **** 
 386              		.loc 1 360 2 view .LVU98
 387 0016 45B9     		cbnz	r5, .L35
 360:Middlewares/Third_Party/FreeRTOS/Source/timers.c **** 
 388              		.loc 1 360 2 view .LVU99
 389              	.LBB59:
 390              	.LBI59:
 191:Middlewares/Third_Party/FreeRTOS/Source/portable/GCC/ARM_CM3/portmacro.h **** {
 391              		.loc 2 191 30 view .LVU100
 392              	.LBB60:
 193:Middlewares/Third_Party/FreeRTOS/Source/portable/GCC/ARM_CM3/portmacro.h **** 
 393              		.loc 2 193 1 view .LVU101
 394              		.loc 2 195 2 view .LVU102
 395              		.syntax unified
 396              	@ 195 "Middlewares/Third_Party/FreeRTOS/Source/portable/GCC/ARM_CM3/portmacro.h" 1
 397 0018 4FF05003 			mov r3, #80												
 398 001c 83F31188 		msr basepri, r3											
 399 0020 BFF36F8F 		isb														
 400 0024 BFF34F8F 		dsb														
 401              	
ARM GAS  /tmp/ccofPfel.s 			page 29


 402              	@ 0 "" 2
 403              	.LVL29:
 404              		.thumb
 405              		.syntax unified
 406              	.L36:
 407              		.loc 2 195 2 is_stmt 0 view .LVU103
 408              	.LBE60:
 409              	.LBE59:
 360:Middlewares/Third_Party/FreeRTOS/Source/timers.c **** 
 410              		.loc 1 360 2 is_stmt 1 view .LVU104
 360:Middlewares/Third_Party/FreeRTOS/Source/timers.c **** 
 411              		.loc 1 360 2 view .LVU105
 412 0028 FEE7     		b	.L36
 413              	.L35:
 360:Middlewares/Third_Party/FreeRTOS/Source/timers.c **** 
 414              		.loc 1 360 45 view .LVU106
 362:Middlewares/Third_Party/FreeRTOS/Source/timers.c **** 	{
 415              		.loc 1 362 2 view .LVU107
 416              	.LVL30:
 417              	.LBB61:
 418              	.LBI61:
 352:Middlewares/Third_Party/FreeRTOS/Source/timers.c **** 									const TickType_t xTimerPeriodInTicks,
 419              		.loc 1 352 13 view .LVU108
 420              	.LBB62:
 366:Middlewares/Third_Party/FreeRTOS/Source/timers.c **** 
 421              		.loc 1 366 3 view .LVU109
 422 002a FFF7FEFF 		bl	prvCheckForValidListAndQueue
 423              	.LVL31:
 370:Middlewares/Third_Party/FreeRTOS/Source/timers.c **** 		pxNewTimer->xTimerPeriodInTicks = xTimerPeriodInTicks;
 424              		.loc 1 370 3 view .LVU110
 374:Middlewares/Third_Party/FreeRTOS/Source/timers.c **** 		vListInitialiseItem( &( pxNewTimer->xTimerListItem ) );
 425              		.loc 1 374 34 is_stmt 0 view .LVU111
 426 002e 069B     		ldr	r3, [sp, #24]
 372:Middlewares/Third_Party/FreeRTOS/Source/timers.c **** 		pxNewTimer->pvTimerID = pvTimerID;
 427              		.loc 1 372 28 view .LVU112
 428 0030 C4E90657 		strd	r5, r7, [r4, #24]
 374:Middlewares/Third_Party/FreeRTOS/Source/timers.c **** 		vListInitialiseItem( &( pxNewTimer->xTimerListItem ) );
 429              		.loc 1 374 34 view .LVU113
 430 0034 6362     		str	r3, [r4, #36]
 370:Middlewares/Third_Party/FreeRTOS/Source/timers.c **** 		pxNewTimer->xTimerPeriodInTicks = xTimerPeriodInTicks;
 431              		.loc 1 370 27 view .LVU114
 432 0036 C4F80080 		str	r8, [r4]
 371:Middlewares/Third_Party/FreeRTOS/Source/timers.c **** 		pxNewTimer->uxAutoReload = uxAutoReload;
 433              		.loc 1 371 3 is_stmt 1 view .LVU115
 373:Middlewares/Third_Party/FreeRTOS/Source/timers.c **** 		pxNewTimer->pxCallbackFunction = pxCallbackFunction;
 434              		.loc 1 373 3 view .LVU116
 373:Middlewares/Third_Party/FreeRTOS/Source/timers.c **** 		pxNewTimer->pxCallbackFunction = pxCallbackFunction;
 435              		.loc 1 373 25 is_stmt 0 view .LVU117
 436 003a 2662     		str	r6, [r4, #32]
 374:Middlewares/Third_Party/FreeRTOS/Source/timers.c **** 		vListInitialiseItem( &( pxNewTimer->xTimerListItem ) );
 437              		.loc 1 374 3 is_stmt 1 view .LVU118
 375:Middlewares/Third_Party/FreeRTOS/Source/timers.c **** 		traceTIMER_CREATE( pxNewTimer );
 438              		.loc 1 375 3 view .LVU119
 439 003c 201D     		adds	r0, r4, #4
 440 003e FFF7FEFF 		bl	vListInitialiseItem
 441              	.LVL32:
 376:Middlewares/Third_Party/FreeRTOS/Source/timers.c **** 	}
ARM GAS  /tmp/ccofPfel.s 			page 30


 442              		.loc 1 376 34 view .LVU120
 376:Middlewares/Third_Party/FreeRTOS/Source/timers.c **** 	}
 443              		.loc 1 376 34 is_stmt 0 view .LVU121
 444              	.LBE62:
 445              	.LBE61:
 376:Middlewares/Third_Party/FreeRTOS/Source/timers.c **** 	}
 446              		.loc 1 376 34 is_stmt 1 view .LVU122
 376:Middlewares/Third_Party/FreeRTOS/Source/timers.c **** 	}
 447              		.loc 1 376 34 is_stmt 0 view .LVU123
 448              	.LBE58:
 449              	.LBE57:
 297:Middlewares/Third_Party/FreeRTOS/Source/timers.c **** 			}
 450              		.loc 1 297 5 is_stmt 1 view .LVU124
 297:Middlewares/Third_Party/FreeRTOS/Source/timers.c **** 			}
 451              		.loc 1 297 39 is_stmt 0 view .LVU125
 452 0042 0023     		movs	r3, #0
 453 0044 84F82C30 		strb	r3, [r4, #44]
 302:Middlewares/Third_Party/FreeRTOS/Source/timers.c **** 	}
 454              		.loc 1 302 3 is_stmt 1 view .LVU126
 455              	.L33:
 303:Middlewares/Third_Party/FreeRTOS/Source/timers.c **** 
 456              		.loc 1 303 2 is_stmt 0 view .LVU127
 457 0048 2046     		mov	r0, r4
 458 004a BDE8F081 		pop	{r4, r5, r6, r7, r8, pc}
 303:Middlewares/Third_Party/FreeRTOS/Source/timers.c **** 
 459              		.loc 1 303 2 view .LVU128
 460              		.cfi_endproc
 461              	.LFE5:
 463              		.section	.text.xTimerCreateStatic,"ax",%progbits
 464              		.align	1
 465              		.global	xTimerCreateStatic
 466              		.syntax unified
 467              		.thumb
 468              		.thumb_func
 470              	xTimerCreateStatic:
 471              	.LVL33:
 472              	.LFB6:
 316:Middlewares/Third_Party/FreeRTOS/Source/timers.c **** 	Timer_t *pxNewTimer;
 473              		.loc 1 316 2 is_stmt 1 view -0
 474              		.cfi_startproc
 475              		@ args = 8, pretend = 0, frame = 8
 476              		@ frame_needed = 0, uses_anonymous_args = 0
 317:Middlewares/Third_Party/FreeRTOS/Source/timers.c **** 
 477              		.loc 1 317 2 view .LVU130
 478              	.LBB76:
 324:Middlewares/Third_Party/FreeRTOS/Source/timers.c **** 			configASSERT( xSize == sizeof( Timer_t ) );
 479              		.loc 1 324 4 view .LVU131
 480              	.LBE76:
 316:Middlewares/Third_Party/FreeRTOS/Source/timers.c **** 	Timer_t *pxNewTimer;
 481              		.loc 1 316 2 is_stmt 0 view .LVU132
 482 0000 2DE9F341 		push	{r0, r1, r4, r5, r6, r7, r8, lr}
 483              		.cfi_def_cfa_offset 32
 484              		.cfi_offset 4, -24
 485              		.cfi_offset 5, -20
 486              		.cfi_offset 6, -16
 487              		.cfi_offset 7, -12
 488              		.cfi_offset 8, -8
ARM GAS  /tmp/ccofPfel.s 			page 31


 489              		.cfi_offset 14, -4
 316:Middlewares/Third_Party/FreeRTOS/Source/timers.c **** 	Timer_t *pxNewTimer;
 490              		.loc 1 316 2 view .LVU133
 491 0004 1E46     		mov	r6, r3
 492              	.LBB79:
 324:Middlewares/Third_Party/FreeRTOS/Source/timers.c **** 			configASSERT( xSize == sizeof( Timer_t ) );
 493              		.loc 1 324 20 view .LVU134
 494 0006 3023     		movs	r3, #48
 495              	.LVL34:
 324:Middlewares/Third_Party/FreeRTOS/Source/timers.c **** 			configASSERT( xSize == sizeof( Timer_t ) );
 496              		.loc 1 324 20 view .LVU135
 497 0008 0193     		str	r3, [sp, #4]
 325:Middlewares/Third_Party/FreeRTOS/Source/timers.c **** 		}
 498              		.loc 1 325 4 is_stmt 1 view .LVU136
 499 000a 019B     		ldr	r3, [sp, #4]
 500              	.LBE79:
 316:Middlewares/Third_Party/FreeRTOS/Source/timers.c **** 	Timer_t *pxNewTimer;
 501              		.loc 1 316 2 is_stmt 0 view .LVU137
 502 000c 8046     		mov	r8, r0
 503              	.LBB80:
 325:Middlewares/Third_Party/FreeRTOS/Source/timers.c **** 		}
 504              		.loc 1 325 4 view .LVU138
 505 000e 302B     		cmp	r3, #48
 506              	.LBE80:
 316:Middlewares/Third_Party/FreeRTOS/Source/timers.c **** 	Timer_t *pxNewTimer;
 507              		.loc 1 316 2 view .LVU139
 508 0010 0D46     		mov	r5, r1
 509 0012 1746     		mov	r7, r2
 510 0014 099C     		ldr	r4, [sp, #36]
 511              	.LBB81:
 325:Middlewares/Third_Party/FreeRTOS/Source/timers.c **** 		}
 512              		.loc 1 325 4 view .LVU140
 513 0016 08D0     		beq	.L41
 325:Middlewares/Third_Party/FreeRTOS/Source/timers.c **** 		}
 514              		.loc 1 325 4 is_stmt 1 view .LVU141
 515              	.LBB77:
 516              	.LBI77:
 191:Middlewares/Third_Party/FreeRTOS/Source/portable/GCC/ARM_CM3/portmacro.h **** {
 517              		.loc 2 191 30 view .LVU142
 518              	.LBB78:
 193:Middlewares/Third_Party/FreeRTOS/Source/portable/GCC/ARM_CM3/portmacro.h **** 
 519              		.loc 2 193 1 view .LVU143
 520              		.loc 2 195 2 view .LVU144
 521              		.syntax unified
 522              	@ 195 "Middlewares/Third_Party/FreeRTOS/Source/portable/GCC/ARM_CM3/portmacro.h" 1
 523 0018 4FF05003 			mov r3, #80												
 524 001c 83F31188 		msr basepri, r3											
 525 0020 BFF36F8F 		isb														
 526 0024 BFF34F8F 		dsb														
 527              	
 528              	@ 0 "" 2
 529              	.LVL35:
 530              		.thumb
 531              		.syntax unified
 532              	.L42:
 533              		.loc 2 195 2 is_stmt 0 view .LVU145
 534              	.LBE78:
ARM GAS  /tmp/ccofPfel.s 			page 32


 535              	.LBE77:
 325:Middlewares/Third_Party/FreeRTOS/Source/timers.c **** 		}
 536              		.loc 1 325 4 is_stmt 1 discriminator 1 view .LVU146
 325:Middlewares/Third_Party/FreeRTOS/Source/timers.c **** 		}
 537              		.loc 1 325 4 discriminator 1 view .LVU147
 538 0028 FEE7     		b	.L42
 539              	.L41:
 325:Middlewares/Third_Party/FreeRTOS/Source/timers.c **** 		}
 540              		.loc 1 325 46 discriminator 2 view .LVU148
 541              	.LBE81:
 330:Middlewares/Third_Party/FreeRTOS/Source/timers.c **** 		pxNewTimer = ( Timer_t * ) pxTimerBuffer; /*lint !e740 Unusual cast is ok as the structures are d
 542              		.loc 1 330 3 discriminator 2 view .LVU149
 543 002a 44B9     		cbnz	r4, .L43
 330:Middlewares/Third_Party/FreeRTOS/Source/timers.c **** 		pxNewTimer = ( Timer_t * ) pxTimerBuffer; /*lint !e740 Unusual cast is ok as the structures are d
 544              		.loc 1 330 3 view .LVU150
 545              	.LBB82:
 546              	.LBI82:
 191:Middlewares/Third_Party/FreeRTOS/Source/portable/GCC/ARM_CM3/portmacro.h **** {
 547              		.loc 2 191 30 view .LVU151
 548              	.LBB83:
 193:Middlewares/Third_Party/FreeRTOS/Source/portable/GCC/ARM_CM3/portmacro.h **** 
 549              		.loc 2 193 1 view .LVU152
 550              		.loc 2 195 2 view .LVU153
 551              		.syntax unified
 552              	@ 195 "Middlewares/Third_Party/FreeRTOS/Source/portable/GCC/ARM_CM3/portmacro.h" 1
 553 002c 4FF05003 			mov r3, #80												
 554 0030 83F31188 		msr basepri, r3											
 555 0034 BFF36F8F 		isb														
 556 0038 BFF34F8F 		dsb														
 557              	
 558              	@ 0 "" 2
 559              	.LVL36:
 560              		.thumb
 561              		.syntax unified
 562              	.L44:
 563              		.loc 2 195 2 is_stmt 0 view .LVU154
 564              	.LBE83:
 565              	.LBE82:
 330:Middlewares/Third_Party/FreeRTOS/Source/timers.c **** 		pxNewTimer = ( Timer_t * ) pxTimerBuffer; /*lint !e740 Unusual cast is ok as the structures are d
 566              		.loc 1 330 3 is_stmt 1 discriminator 2 view .LVU155
 330:Middlewares/Third_Party/FreeRTOS/Source/timers.c **** 		pxNewTimer = ( Timer_t * ) pxTimerBuffer; /*lint !e740 Unusual cast is ok as the structures are d
 567              		.loc 1 330 3 discriminator 2 view .LVU156
 568 003c FEE7     		b	.L44
 569              	.L43:
 330:Middlewares/Third_Party/FreeRTOS/Source/timers.c **** 		pxNewTimer = ( Timer_t * ) pxTimerBuffer; /*lint !e740 Unusual cast is ok as the structures are d
 570              		.loc 1 330 32 view .LVU157
 331:Middlewares/Third_Party/FreeRTOS/Source/timers.c **** 
 571              		.loc 1 331 3 view .LVU158
 572              	.LVL37:
 333:Middlewares/Third_Party/FreeRTOS/Source/timers.c **** 		{
 573              		.loc 1 333 3 view .LVU159
 335:Middlewares/Third_Party/FreeRTOS/Source/timers.c **** 
 574              		.loc 1 335 4 view .LVU160
 575              	.LBB84:
 576              	.LBI84:
 352:Middlewares/Third_Party/FreeRTOS/Source/timers.c **** 									const TickType_t xTimerPeriodInTicks,
 577              		.loc 1 352 13 view .LVU161
ARM GAS  /tmp/ccofPfel.s 			page 33


 578              	.LBB85:
 360:Middlewares/Third_Party/FreeRTOS/Source/timers.c **** 
 579              		.loc 1 360 2 view .LVU162
 580 003e 41B9     		cbnz	r1, .L45
 360:Middlewares/Third_Party/FreeRTOS/Source/timers.c **** 
 581              		.loc 1 360 2 view .LVU163
 582              	.LBB86:
 583              	.LBI86:
 191:Middlewares/Third_Party/FreeRTOS/Source/portable/GCC/ARM_CM3/portmacro.h **** {
 584              		.loc 2 191 30 view .LVU164
 585              	.LBB87:
 193:Middlewares/Third_Party/FreeRTOS/Source/portable/GCC/ARM_CM3/portmacro.h **** 
 586              		.loc 2 193 1 view .LVU165
 587              		.loc 2 195 2 view .LVU166
 588              		.syntax unified
 589              	@ 195 "Middlewares/Third_Party/FreeRTOS/Source/portable/GCC/ARM_CM3/portmacro.h" 1
 590 0040 4FF05003 			mov r3, #80												
 591 0044 83F31188 		msr basepri, r3											
 592 0048 BFF36F8F 		isb														
 593 004c BFF34F8F 		dsb														
 594              	
 595              	@ 0 "" 2
 596              	.LVL38:
 597              		.thumb
 598              		.syntax unified
 599              	.L46:
 600              		.loc 2 195 2 is_stmt 0 view .LVU167
 601              	.LBE87:
 602              	.LBE86:
 360:Middlewares/Third_Party/FreeRTOS/Source/timers.c **** 
 603              		.loc 1 360 2 is_stmt 1 view .LVU168
 360:Middlewares/Third_Party/FreeRTOS/Source/timers.c **** 
 604              		.loc 1 360 2 view .LVU169
 605 0050 FEE7     		b	.L46
 606              	.L45:
 360:Middlewares/Third_Party/FreeRTOS/Source/timers.c **** 
 607              		.loc 1 360 45 view .LVU170
 362:Middlewares/Third_Party/FreeRTOS/Source/timers.c **** 	{
 608              		.loc 1 362 2 view .LVU171
 609              	.LVL39:
 610              	.LBB88:
 611              	.LBI88:
 352:Middlewares/Third_Party/FreeRTOS/Source/timers.c **** 									const TickType_t xTimerPeriodInTicks,
 612              		.loc 1 352 13 view .LVU172
 613              	.LBB89:
 366:Middlewares/Third_Party/FreeRTOS/Source/timers.c **** 
 614              		.loc 1 366 3 view .LVU173
 615 0052 FFF7FEFF 		bl	prvCheckForValidListAndQueue
 616              	.LVL40:
 370:Middlewares/Third_Party/FreeRTOS/Source/timers.c **** 		pxNewTimer->xTimerPeriodInTicks = xTimerPeriodInTicks;
 617              		.loc 1 370 3 view .LVU174
 374:Middlewares/Third_Party/FreeRTOS/Source/timers.c **** 		vListInitialiseItem( &( pxNewTimer->xTimerListItem ) );
 618              		.loc 1 374 34 is_stmt 0 view .LVU175
 619 0056 089B     		ldr	r3, [sp, #32]
 375:Middlewares/Third_Party/FreeRTOS/Source/timers.c **** 		traceTIMER_CREATE( pxNewTimer );
 620              		.loc 1 375 3 view .LVU176
 621 0058 201D     		adds	r0, r4, #4
ARM GAS  /tmp/ccofPfel.s 			page 34


 374:Middlewares/Third_Party/FreeRTOS/Source/timers.c **** 		vListInitialiseItem( &( pxNewTimer->xTimerListItem ) );
 622              		.loc 1 374 34 view .LVU177
 623 005a 6362     		str	r3, [r4, #36]
 372:Middlewares/Third_Party/FreeRTOS/Source/timers.c **** 		pxNewTimer->pvTimerID = pvTimerID;
 624              		.loc 1 372 28 view .LVU178
 625 005c C4E90657 		strd	r5, r7, [r4, #24]
 370:Middlewares/Third_Party/FreeRTOS/Source/timers.c **** 		pxNewTimer->xTimerPeriodInTicks = xTimerPeriodInTicks;
 626              		.loc 1 370 27 view .LVU179
 627 0060 C4F80080 		str	r8, [r4]
 371:Middlewares/Third_Party/FreeRTOS/Source/timers.c **** 		pxNewTimer->uxAutoReload = uxAutoReload;
 628              		.loc 1 371 3 is_stmt 1 view .LVU180
 373:Middlewares/Third_Party/FreeRTOS/Source/timers.c **** 		pxNewTimer->pxCallbackFunction = pxCallbackFunction;
 629              		.loc 1 373 3 view .LVU181
 373:Middlewares/Third_Party/FreeRTOS/Source/timers.c **** 		pxNewTimer->pxCallbackFunction = pxCallbackFunction;
 630              		.loc 1 373 25 is_stmt 0 view .LVU182
 631 0064 2662     		str	r6, [r4, #32]
 374:Middlewares/Third_Party/FreeRTOS/Source/timers.c **** 		vListInitialiseItem( &( pxNewTimer->xTimerListItem ) );
 632              		.loc 1 374 3 is_stmt 1 view .LVU183
 375:Middlewares/Third_Party/FreeRTOS/Source/timers.c **** 		traceTIMER_CREATE( pxNewTimer );
 633              		.loc 1 375 3 view .LVU184
 634 0066 FFF7FEFF 		bl	vListInitialiseItem
 635              	.LVL41:
 376:Middlewares/Third_Party/FreeRTOS/Source/timers.c **** 	}
 636              		.loc 1 376 34 view .LVU185
 376:Middlewares/Third_Party/FreeRTOS/Source/timers.c **** 	}
 637              		.loc 1 376 34 is_stmt 0 view .LVU186
 638              	.LBE89:
 639              	.LBE88:
 376:Middlewares/Third_Party/FreeRTOS/Source/timers.c **** 	}
 640              		.loc 1 376 34 is_stmt 1 view .LVU187
 376:Middlewares/Third_Party/FreeRTOS/Source/timers.c **** 	}
 641              		.loc 1 376 34 is_stmt 0 view .LVU188
 642              	.LBE85:
 643              	.LBE84:
 341:Middlewares/Third_Party/FreeRTOS/Source/timers.c **** 			}
 644              		.loc 1 341 5 is_stmt 1 view .LVU189
 341:Middlewares/Third_Party/FreeRTOS/Source/timers.c **** 			}
 645              		.loc 1 341 39 is_stmt 0 view .LVU190
 646 006a 0123     		movs	r3, #1
 347:Middlewares/Third_Party/FreeRTOS/Source/timers.c **** 
 647              		.loc 1 347 2 view .LVU191
 648 006c 2046     		mov	r0, r4
 341:Middlewares/Third_Party/FreeRTOS/Source/timers.c **** 			}
 649              		.loc 1 341 39 view .LVU192
 650 006e 84F82C30 		strb	r3, [r4, #44]
 346:Middlewares/Third_Party/FreeRTOS/Source/timers.c **** 	}
 651              		.loc 1 346 3 is_stmt 1 view .LVU193
 347:Middlewares/Third_Party/FreeRTOS/Source/timers.c **** 
 652              		.loc 1 347 2 is_stmt 0 view .LVU194
 653 0072 02B0     		add	sp, sp, #8
 654              		.cfi_def_cfa_offset 24
 655              		@ sp needed
 656 0074 BDE8F081 		pop	{r4, r5, r6, r7, r8, pc}
 347:Middlewares/Third_Party/FreeRTOS/Source/timers.c **** 
 657              		.loc 1 347 2 view .LVU195
 658              		.cfi_endproc
 659              	.LFE6:
ARM GAS  /tmp/ccofPfel.s 			page 35


 661              		.section	.text.xTimerGenericCommand,"ax",%progbits
 662              		.align	1
 663              		.global	xTimerGenericCommand
 664              		.syntax unified
 665              		.thumb
 666              		.thumb_func
 668              	xTimerGenericCommand:
 669              	.LVL42:
 670              	.LFB8:
 382:Middlewares/Third_Party/FreeRTOS/Source/timers.c **** BaseType_t xReturn = pdFAIL;
 671              		.loc 1 382 1 is_stmt 1 view -0
 672              		.cfi_startproc
 673              		@ args = 4, pretend = 0, frame = 16
 674              		@ frame_needed = 0, uses_anonymous_args = 0
 383:Middlewares/Third_Party/FreeRTOS/Source/timers.c **** DaemonTaskMessage_t xMessage;
 675              		.loc 1 383 1 view .LVU197
 384:Middlewares/Third_Party/FreeRTOS/Source/timers.c **** 
 676              		.loc 1 384 1 view .LVU198
 386:Middlewares/Third_Party/FreeRTOS/Source/timers.c **** 
 677              		.loc 1 386 2 view .LVU199
 382:Middlewares/Third_Party/FreeRTOS/Source/timers.c **** BaseType_t xReturn = pdFAIL;
 678              		.loc 1 382 1 is_stmt 0 view .LVU200
 679 0000 7FB5     		push	{r0, r1, r2, r3, r4, r5, r6, lr}
 680              		.cfi_def_cfa_offset 32
 681              		.cfi_offset 4, -16
 682              		.cfi_offset 5, -12
 683              		.cfi_offset 6, -8
 684              		.cfi_offset 14, -4
 382:Middlewares/Third_Party/FreeRTOS/Source/timers.c **** BaseType_t xReturn = pdFAIL;
 685              		.loc 1 382 1 view .LVU201
 686 0002 1646     		mov	r6, r2
 386:Middlewares/Third_Party/FreeRTOS/Source/timers.c **** 
 687              		.loc 1 386 2 view .LVU202
 688 0004 0446     		mov	r4, r0
 382:Middlewares/Third_Party/FreeRTOS/Source/timers.c **** BaseType_t xReturn = pdFAIL;
 689              		.loc 1 382 1 view .LVU203
 690 0006 1A46     		mov	r2, r3
 691              	.LVL43:
 386:Middlewares/Third_Party/FreeRTOS/Source/timers.c **** 
 692              		.loc 1 386 2 view .LVU204
 693 0008 40B9     		cbnz	r0, .L48
 386:Middlewares/Third_Party/FreeRTOS/Source/timers.c **** 
 694              		.loc 1 386 2 is_stmt 1 view .LVU205
 695              	.LBB90:
 696              	.LBI90:
 191:Middlewares/Third_Party/FreeRTOS/Source/portable/GCC/ARM_CM3/portmacro.h **** {
 697              		.loc 2 191 30 view .LVU206
 698              	.LBB91:
 193:Middlewares/Third_Party/FreeRTOS/Source/portable/GCC/ARM_CM3/portmacro.h **** 
 699              		.loc 2 193 1 view .LVU207
 700              		.loc 2 195 2 view .LVU208
 701              		.syntax unified
 702              	@ 195 "Middlewares/Third_Party/FreeRTOS/Source/portable/GCC/ARM_CM3/portmacro.h" 1
 703 000a 4FF05003 			mov r3, #80												
 704 000e 83F31188 		msr basepri, r3											
 705 0012 BFF36F8F 		isb														
 706 0016 BFF34F8F 		dsb														
ARM GAS  /tmp/ccofPfel.s 			page 36


 707              	
 708              	@ 0 "" 2
 709              	.LVL44:
 710              		.thumb
 711              		.syntax unified
 712              	.L49:
 713              		.loc 2 195 2 is_stmt 0 view .LVU209
 714              	.LBE91:
 715              	.LBE90:
 386:Middlewares/Third_Party/FreeRTOS/Source/timers.c **** 
 716              		.loc 1 386 2 is_stmt 1 discriminator 1 view .LVU210
 386:Middlewares/Third_Party/FreeRTOS/Source/timers.c **** 
 717              		.loc 1 386 2 discriminator 1 view .LVU211
 718 001a FEE7     		b	.L49
 719              	.L48:
 386:Middlewares/Third_Party/FreeRTOS/Source/timers.c **** 
 720              		.loc 1 386 24 discriminator 2 view .LVU212
 390:Middlewares/Third_Party/FreeRTOS/Source/timers.c **** 	{
 721              		.loc 1 390 2 discriminator 2 view .LVU213
 390:Middlewares/Third_Party/FreeRTOS/Source/timers.c **** 	{
 722              		.loc 1 390 18 is_stmt 0 discriminator 2 view .LVU214
 723 001c 0D4D     		ldr	r5, .L55
 724 001e 2868     		ldr	r0, [r5]
 725              	.LVL45:
 390:Middlewares/Third_Party/FreeRTOS/Source/timers.c **** 	{
 726              		.loc 1 390 4 discriminator 2 view .LVU215
 727 0020 80B1     		cbz	r0, .L47
 393:Middlewares/Third_Party/FreeRTOS/Source/timers.c **** 		xMessage.u.xTimerParameters.xMessageValue = xOptionalValue;
 728              		.loc 1 393 3 is_stmt 1 view .LVU216
 397:Middlewares/Third_Party/FreeRTOS/Source/timers.c **** 		{
 729              		.loc 1 397 5 is_stmt 0 view .LVU217
 730 0022 0529     		cmp	r1, #5
 394:Middlewares/Third_Party/FreeRTOS/Source/timers.c **** 		xMessage.u.xTimerParameters.pxTimer = ( Timer_t * ) xTimer;
 731              		.loc 1 394 45 view .LVU218
 732 0024 CDE90016 		strd	r1, r6, [sp]
 395:Middlewares/Third_Party/FreeRTOS/Source/timers.c **** 
 733              		.loc 1 395 3 is_stmt 1 view .LVU219
 395:Middlewares/Third_Party/FreeRTOS/Source/timers.c **** 
 734              		.loc 1 395 39 is_stmt 0 view .LVU220
 735 0028 0294     		str	r4, [sp, #8]
 397:Middlewares/Third_Party/FreeRTOS/Source/timers.c **** 		{
 736              		.loc 1 397 3 is_stmt 1 view .LVU221
 397:Middlewares/Third_Party/FreeRTOS/Source/timers.c **** 		{
 737              		.loc 1 397 5 is_stmt 0 view .LVU222
 738 002a 0DDC     		bgt	.L51
 399:Middlewares/Third_Party/FreeRTOS/Source/timers.c **** 			{
 739              		.loc 1 399 4 is_stmt 1 view .LVU223
 399:Middlewares/Third_Party/FreeRTOS/Source/timers.c **** 			{
 740              		.loc 1 399 8 is_stmt 0 view .LVU224
 741 002c FFF7FEFF 		bl	xTaskGetSchedulerState
 742              	.LVL46:
 401:Middlewares/Third_Party/FreeRTOS/Source/timers.c **** 			}
 743              		.loc 1 401 15 view .LVU225
 744 0030 0023     		movs	r3, #0
 399:Middlewares/Third_Party/FreeRTOS/Source/timers.c **** 			{
 745              		.loc 1 399 6 view .LVU226
 746 0032 0228     		cmp	r0, #2
ARM GAS  /tmp/ccofPfel.s 			page 37


 401:Middlewares/Third_Party/FreeRTOS/Source/timers.c **** 			}
 747              		.loc 1 401 5 is_stmt 1 view .LVU227
 405:Middlewares/Third_Party/FreeRTOS/Source/timers.c **** 			}
 748              		.loc 1 405 15 is_stmt 0 view .LVU228
 749 0034 18BF     		it	ne
 750 0036 1A46     		movne	r2, r3
 751 0038 6946     		mov	r1, sp
 401:Middlewares/Third_Party/FreeRTOS/Source/timers.c **** 			}
 752              		.loc 1 401 15 view .LVU229
 753 003a 08BF     		it	eq
 754 003c 089A     		ldreq	r2, [sp, #32]
 405:Middlewares/Third_Party/FreeRTOS/Source/timers.c **** 			}
 755              		.loc 1 405 5 is_stmt 1 view .LVU230
 405:Middlewares/Third_Party/FreeRTOS/Source/timers.c **** 			}
 756              		.loc 1 405 15 is_stmt 0 view .LVU231
 757 003e 2868     		ldr	r0, [r5]
 758 0040 FFF7FEFF 		bl	xQueueGenericSend
 759              	.LVL47:
 760              	.L47:
 421:Middlewares/Third_Party/FreeRTOS/Source/timers.c **** /*-----------------------------------------------------------*/
 761              		.loc 1 421 1 view .LVU232
 762 0044 04B0     		add	sp, sp, #16
 763              		.cfi_remember_state
 764              		.cfi_def_cfa_offset 16
 765              		@ sp needed
 766 0046 70BD     		pop	{r4, r5, r6, pc}
 767              	.LVL48:
 768              	.L51:
 769              		.cfi_restore_state
 410:Middlewares/Third_Party/FreeRTOS/Source/timers.c **** 		}
 770              		.loc 1 410 4 is_stmt 1 view .LVU233
 410:Middlewares/Third_Party/FreeRTOS/Source/timers.c **** 		}
 771              		.loc 1 410 14 is_stmt 0 view .LVU234
 772 0048 0023     		movs	r3, #0
 773 004a 6946     		mov	r1, sp
 774              	.LVL49:
 410:Middlewares/Third_Party/FreeRTOS/Source/timers.c **** 		}
 775              		.loc 1 410 14 view .LVU235
 776 004c FFF7FEFF 		bl	xQueueGenericSendFromISR
 777              	.LVL50:
 410:Middlewares/Third_Party/FreeRTOS/Source/timers.c **** 		}
 778              		.loc 1 410 14 view .LVU236
 779 0050 F8E7     		b	.L47
 780              	.L56:
 781 0052 00BF     		.align	2
 782              	.L55:
 783 0054 00000000 		.word	xTimerQueue
 784              		.cfi_endproc
 785              	.LFE8:
 787              		.section	.text.prvSampleTimeNow,"ax",%progbits
 788              		.align	1
 789              		.syntax unified
 790              		.thumb
 791              		.thumb_func
 793              	prvSampleTimeNow:
 794              	.LVL51:
 795              	.LFB17:
ARM GAS  /tmp/ccofPfel.s 			page 38


 625:Middlewares/Third_Party/FreeRTOS/Source/timers.c **** TickType_t xTimeNow;
 796              		.loc 1 625 1 is_stmt 1 view -0
 797              		.cfi_startproc
 798              		@ args = 0, pretend = 0, frame = 0
 799              		@ frame_needed = 0, uses_anonymous_args = 0
 626:Middlewares/Third_Party/FreeRTOS/Source/timers.c **** PRIVILEGED_DATA static TickType_t xLastTime = ( TickType_t ) 0U; /*lint !e956 Variable is only acce
 800              		.loc 1 626 1 view .LVU238
 627:Middlewares/Third_Party/FreeRTOS/Source/timers.c **** 
 801              		.loc 1 627 17 view .LVU239
 629:Middlewares/Third_Party/FreeRTOS/Source/timers.c **** 
 802              		.loc 1 629 2 view .LVU240
 625:Middlewares/Third_Party/FreeRTOS/Source/timers.c **** TickType_t xTimeNow;
 803              		.loc 1 625 1 is_stmt 0 view .LVU241
 804 0000 2DE9F347 		push	{r0, r1, r4, r5, r6, r7, r8, r9, r10, lr}
 805              		.cfi_def_cfa_offset 40
 806              		.cfi_offset 4, -32
 807              		.cfi_offset 5, -28
 808              		.cfi_offset 6, -24
 809              		.cfi_offset 7, -20
 810              		.cfi_offset 8, -16
 811              		.cfi_offset 9, -12
 812              		.cfi_offset 10, -8
 813              		.cfi_offset 14, -4
 625:Middlewares/Third_Party/FreeRTOS/Source/timers.c **** TickType_t xTimeNow;
 814              		.loc 1 625 1 view .LVU242
 815 0004 0646     		mov	r6, r0
 629:Middlewares/Third_Party/FreeRTOS/Source/timers.c **** 
 816              		.loc 1 629 13 view .LVU243
 817 0006 FFF7FEFF 		bl	xTaskGetTickCount
 818              	.LVL52:
 631:Middlewares/Third_Party/FreeRTOS/Source/timers.c **** 	{
 819              		.loc 1 631 15 view .LVU244
 820 000a DFF88880 		ldr	r8, .L68
 629:Middlewares/Third_Party/FreeRTOS/Source/timers.c **** 
 821              		.loc 1 629 13 view .LVU245
 822 000e 0546     		mov	r5, r0
 823              	.LVL53:
 631:Middlewares/Third_Party/FreeRTOS/Source/timers.c **** 	{
 824              		.loc 1 631 2 is_stmt 1 view .LVU246
 631:Middlewares/Third_Party/FreeRTOS/Source/timers.c **** 	{
 825              		.loc 1 631 4 is_stmt 0 view .LVU247
 826 0010 D8F80030 		ldr	r3, [r8]
 827 0014 8342     		cmp	r3, r0
 828 0016 09D9     		bls	.L67
 829              	.LBB96:
 830              	.LBB97:
 846:Middlewares/Third_Party/FreeRTOS/Source/timers.c **** 	{
 831              		.loc 1 846 9 view .LVU248
 832 0018 1F4F     		ldr	r7, .L68+4
 833              	.LVL54:
 834              	.L60:
 884:Middlewares/Third_Party/FreeRTOS/Source/timers.c **** 		}
 835              		.loc 1 884 28 is_stmt 1 view .LVU249
 846:Middlewares/Third_Party/FreeRTOS/Source/timers.c **** 	{
 836              		.loc 1 846 49 view .LVU250
 846:Middlewares/Third_Party/FreeRTOS/Source/timers.c **** 	{
 837              		.loc 1 846 9 is_stmt 0 view .LVU251
ARM GAS  /tmp/ccofPfel.s 			page 39


 838 001a 3B68     		ldr	r3, [r7]
 839 001c 1A68     		ldr	r2, [r3]
 846:Middlewares/Third_Party/FreeRTOS/Source/timers.c **** 	{
 840              		.loc 1 846 49 view .LVU252
 841 001e 6AB9     		cbnz	r2, .L64
 888:Middlewares/Third_Party/FreeRTOS/Source/timers.c **** 	pxCurrentTimerList = pxOverflowTimerList;
 842              		.loc 1 888 2 is_stmt 1 view .LVU253
 843              	.LVL55:
 889:Middlewares/Third_Party/FreeRTOS/Source/timers.c **** 	pxOverflowTimerList = pxTemp;
 844              		.loc 1 889 2 view .LVU254
 889:Middlewares/Third_Party/FreeRTOS/Source/timers.c **** 	pxOverflowTimerList = pxTemp;
 845              		.loc 1 889 21 is_stmt 0 view .LVU255
 846 0020 1E4A     		ldr	r2, .L68+8
 847 0022 1168     		ldr	r1, [r2]
 890:Middlewares/Third_Party/FreeRTOS/Source/timers.c **** }
 848              		.loc 1 890 22 view .LVU256
 849 0024 1360     		str	r3, [r2]
 889:Middlewares/Third_Party/FreeRTOS/Source/timers.c **** 	pxOverflowTimerList = pxTemp;
 850              		.loc 1 889 21 view .LVU257
 851 0026 3960     		str	r1, [r7]
 890:Middlewares/Third_Party/FreeRTOS/Source/timers.c **** }
 852              		.loc 1 890 2 is_stmt 1 view .LVU258
 853              	.LBE97:
 854              	.LBE96:
 634:Middlewares/Third_Party/FreeRTOS/Source/timers.c **** 	}
 855              		.loc 1 634 3 view .LVU259
 856 0028 0123     		movs	r3, #1
 857              	.LVL56:
 634:Middlewares/Third_Party/FreeRTOS/Source/timers.c **** 	}
 858              		.loc 1 634 3 is_stmt 0 view .LVU260
 859 002a 00E0     		b	.L59
 860              	.LVL57:
 861              	.L67:
 634:Middlewares/Third_Party/FreeRTOS/Source/timers.c **** 	}
 862              		.loc 1 634 3 view .LVU261
 863 002c 0023     		movs	r3, #0
 864              	.LVL58:
 865              	.L59:
 644:Middlewares/Third_Party/FreeRTOS/Source/timers.c **** /*-----------------------------------------------------------*/
 866              		.loc 1 644 1 view .LVU262
 867 002e 2846     		mov	r0, r5
 634:Middlewares/Third_Party/FreeRTOS/Source/timers.c **** 	}
 868              		.loc 1 634 29 view .LVU263
 869 0030 3360     		str	r3, [r6]
 641:Middlewares/Third_Party/FreeRTOS/Source/timers.c **** 
 870              		.loc 1 641 2 is_stmt 1 view .LVU264
 641:Middlewares/Third_Party/FreeRTOS/Source/timers.c **** 
 871              		.loc 1 641 12 is_stmt 0 view .LVU265
 872 0032 C8F80050 		str	r5, [r8]
 643:Middlewares/Third_Party/FreeRTOS/Source/timers.c **** }
 873              		.loc 1 643 2 is_stmt 1 view .LVU266
 644:Middlewares/Third_Party/FreeRTOS/Source/timers.c **** /*-----------------------------------------------------------*/
 874              		.loc 1 644 1 is_stmt 0 view .LVU267
 875 0036 02B0     		add	sp, sp, #8
 876              		.cfi_remember_state
 877              		.cfi_def_cfa_offset 32
 878              		@ sp needed
ARM GAS  /tmp/ccofPfel.s 			page 40


 879 0038 BDE8F087 		pop	{r4, r5, r6, r7, r8, r9, r10, pc}
 880              	.LVL59:
 881              	.L64:
 882              		.cfi_restore_state
 883              	.LBB101:
 884              	.LBB100:
 848:Middlewares/Third_Party/FreeRTOS/Source/timers.c **** 
 885              		.loc 1 848 3 is_stmt 1 view .LVU268
 848:Middlewares/Third_Party/FreeRTOS/Source/timers.c **** 
 886              		.loc 1 848 21 is_stmt 0 view .LVU269
 887 003c DB68     		ldr	r3, [r3, #12]
 851:Middlewares/Third_Party/FreeRTOS/Source/timers.c **** 		( void ) uxListRemove( &( pxTimer->xTimerListItem ) );
 888              		.loc 1 851 11 view .LVU270
 889 003e DC68     		ldr	r4, [r3, #12]
 848:Middlewares/Third_Party/FreeRTOS/Source/timers.c **** 
 890              		.loc 1 848 19 view .LVU271
 891 0040 D3F80090 		ldr	r9, [r3]
 892              	.LVL60:
 851:Middlewares/Third_Party/FreeRTOS/Source/timers.c **** 		( void ) uxListRemove( &( pxTimer->xTimerListItem ) );
 893              		.loc 1 851 3 is_stmt 1 view .LVU272
 852:Middlewares/Third_Party/FreeRTOS/Source/timers.c **** 		traceTIMER_EXPIRED( pxTimer );
 894              		.loc 1 852 3 view .LVU273
 852:Middlewares/Third_Party/FreeRTOS/Source/timers.c **** 		traceTIMER_EXPIRED( pxTimer );
 895              		.loc 1 852 12 is_stmt 0 view .LVU274
 896 0044 04F1040A 		add	r10, r4, #4
 897 0048 5046     		mov	r0, r10
 898 004a FFF7FEFF 		bl	uxListRemove
 899              	.LVL61:
 853:Middlewares/Third_Party/FreeRTOS/Source/timers.c **** 
 900              		.loc 1 853 32 is_stmt 1 view .LVU275
 858:Middlewares/Third_Party/FreeRTOS/Source/timers.c **** 
 901              		.loc 1 858 3 view .LVU276
 902 004e 636A     		ldr	r3, [r4, #36]
 903 0050 2046     		mov	r0, r4
 904 0052 9847     		blx	r3
 905              	.LVL62:
 860:Middlewares/Third_Party/FreeRTOS/Source/timers.c **** 		{
 906              		.loc 1 860 3 view .LVU277
 860:Middlewares/Third_Party/FreeRTOS/Source/timers.c **** 		{
 907              		.loc 1 860 5 is_stmt 0 view .LVU278
 908 0054 E369     		ldr	r3, [r4, #28]
 909 0056 012B     		cmp	r3, #1
 910 0058 DFD1     		bne	.L60
 868:Middlewares/Third_Party/FreeRTOS/Source/timers.c **** 			if( xReloadTime > xNextExpireTime )
 911              		.loc 1 868 4 is_stmt 1 view .LVU279
 868:Middlewares/Third_Party/FreeRTOS/Source/timers.c **** 			if( xReloadTime > xNextExpireTime )
 912              		.loc 1 868 16 is_stmt 0 view .LVU280
 913 005a A369     		ldr	r3, [r4, #24]
 914 005c 4B44     		add	r3, r3, r9
 915              	.LVL63:
 869:Middlewares/Third_Party/FreeRTOS/Source/timers.c **** 			{
 916              		.loc 1 869 4 is_stmt 1 view .LVU281
 869:Middlewares/Third_Party/FreeRTOS/Source/timers.c **** 			{
 917              		.loc 1 869 6 is_stmt 0 view .LVU282
 918 005e 9945     		cmp	r9, r3
 919 0060 06D2     		bcs	.L61
 871:Middlewares/Third_Party/FreeRTOS/Source/timers.c **** 				listSET_LIST_ITEM_OWNER( &( pxTimer->xTimerListItem ), pxTimer );
ARM GAS  /tmp/ccofPfel.s 			page 41


 920              		.loc 1 871 5 is_stmt 1 view .LVU283
 873:Middlewares/Third_Party/FreeRTOS/Source/timers.c **** 			}
 921              		.loc 1 873 5 is_stmt 0 view .LVU284
 922 0062 5146     		mov	r1, r10
 923 0064 3868     		ldr	r0, [r7]
 871:Middlewares/Third_Party/FreeRTOS/Source/timers.c **** 				listSET_LIST_ITEM_OWNER( &( pxTimer->xTimerListItem ), pxTimer );
 924              		.loc 1 871 5 view .LVU285
 925 0066 6360     		str	r3, [r4, #4]
 872:Middlewares/Third_Party/FreeRTOS/Source/timers.c **** 				vListInsert( pxCurrentTimerList, &( pxTimer->xTimerListItem ) );
 926              		.loc 1 872 5 is_stmt 1 view .LVU286
 927 0068 2461     		str	r4, [r4, #16]
 873:Middlewares/Third_Party/FreeRTOS/Source/timers.c **** 			}
 928              		.loc 1 873 5 view .LVU287
 929 006a FFF7FEFF 		bl	vListInsert
 930              	.LVL64:
 873:Middlewares/Third_Party/FreeRTOS/Source/timers.c **** 			}
 931              		.loc 1 873 5 is_stmt 0 view .LVU288
 932 006e D4E7     		b	.L60
 933              	.LVL65:
 934              	.L61:
 877:Middlewares/Third_Party/FreeRTOS/Source/timers.c **** 				configASSERT( xResult );
 935              		.loc 1 877 5 is_stmt 1 view .LVU289
 877:Middlewares/Third_Party/FreeRTOS/Source/timers.c **** 				configASSERT( xResult );
 936              		.loc 1 877 15 is_stmt 0 view .LVU290
 937 0070 0023     		movs	r3, #0
 938              	.LVL66:
 877:Middlewares/Third_Party/FreeRTOS/Source/timers.c **** 				configASSERT( xResult );
 939              		.loc 1 877 15 view .LVU291
 940 0072 4A46     		mov	r2, r9
 941 0074 1946     		mov	r1, r3
 942 0076 2046     		mov	r0, r4
 943 0078 0093     		str	r3, [sp]
 944              	.LVL67:
 877:Middlewares/Third_Party/FreeRTOS/Source/timers.c **** 				configASSERT( xResult );
 945              		.loc 1 877 15 view .LVU292
 946 007a FFF7FEFF 		bl	xTimerGenericCommand
 947              	.LVL68:
 878:Middlewares/Third_Party/FreeRTOS/Source/timers.c **** 				( void ) xResult;
 948              		.loc 1 878 5 is_stmt 1 view .LVU293
 949 007e 0028     		cmp	r0, #0
 950 0080 CBD1     		bne	.L60
 878:Middlewares/Third_Party/FreeRTOS/Source/timers.c **** 				( void ) xResult;
 951              		.loc 1 878 5 view .LVU294
 952              	.LBB98:
 953              	.LBI98:
 191:Middlewares/Third_Party/FreeRTOS/Source/portable/GCC/ARM_CM3/portmacro.h **** {
 954              		.loc 2 191 30 view .LVU295
 955              	.LBB99:
 193:Middlewares/Third_Party/FreeRTOS/Source/portable/GCC/ARM_CM3/portmacro.h **** 
 956              		.loc 2 193 1 view .LVU296
 957              		.loc 2 195 2 view .LVU297
 958              		.syntax unified
 959              	@ 195 "Middlewares/Third_Party/FreeRTOS/Source/portable/GCC/ARM_CM3/portmacro.h" 1
 960 0082 4FF05003 			mov r3, #80												
 961 0086 83F31188 		msr basepri, r3											
 962 008a BFF36F8F 		isb														
 963 008e BFF34F8F 		dsb														
ARM GAS  /tmp/ccofPfel.s 			page 42


 964              	
 965              	@ 0 "" 2
 966              	.LVL69:
 967              		.thumb
 968              		.syntax unified
 969              	.L63:
 970              		.loc 2 195 2 is_stmt 0 view .LVU298
 971              	.LBE99:
 972              	.LBE98:
 878:Middlewares/Third_Party/FreeRTOS/Source/timers.c **** 				( void ) xResult;
 973              		.loc 1 878 5 is_stmt 1 view .LVU299
 878:Middlewares/Third_Party/FreeRTOS/Source/timers.c **** 				( void ) xResult;
 974              		.loc 1 878 5 view .LVU300
 975 0092 FEE7     		b	.L63
 976              	.L69:
 977              		.align	2
 978              	.L68:
 979 0094 00000000 		.word	xLastTime.2
 980 0098 00000000 		.word	pxCurrentTimerList
 981 009c 00000000 		.word	pxOverflowTimerList
 982              	.LBE100:
 983              	.LBE101:
 984              		.cfi_endproc
 985              	.LFE17:
 987              		.section	.text.prvTimerTask,"ax",%progbits
 988              		.align	1
 989              		.syntax unified
 990              		.thumb
 991              		.thumb_func
 993              	prvTimerTask:
 994              	.LVL70:
 995              	.LFB14:
 503:Middlewares/Third_Party/FreeRTOS/Source/timers.c **** TickType_t xNextExpireTime;
 996              		.loc 1 503 1 view -0
 997              		.cfi_startproc
 998              		@ args = 0, pretend = 0, frame = 24
 999              		@ frame_needed = 0, uses_anonymous_args = 0
 503:Middlewares/Third_Party/FreeRTOS/Source/timers.c **** TickType_t xNextExpireTime;
 1000              		.loc 1 503 1 is_stmt 0 view .LVU302
 1001 0000 2DE9F043 		push	{r4, r5, r6, r7, r8, r9, lr}
 1002              		.cfi_def_cfa_offset 28
 1003              		.cfi_offset 4, -28
 1004              		.cfi_offset 5, -24
 1005              		.cfi_offset 6, -20
 1006              		.cfi_offset 7, -16
 1007              		.cfi_offset 8, -12
 1008              		.cfi_offset 9, -8
 1009              		.cfi_offset 14, -4
 1010              	.LBB117:
 1011              	.LBB118:
 609:Middlewares/Third_Party/FreeRTOS/Source/timers.c **** 	if( *pxListWasEmpty == pdFALSE )
 1012              		.loc 1 609 20 view .LVU303
 1013 0004 694E     		ldr	r6, .L101
 1014              	.LBE118:
 1015              	.LBE117:
 1016              	.LBB121:
 1017              	.LBB122:
ARM GAS  /tmp/ccofPfel.s 			page 43


 574:Middlewares/Third_Party/FreeRTOS/Source/timers.c **** 
 1018              		.loc 1 574 5 view .LVU304
 1019 0006 6A4F     		ldr	r7, .L101+4
 1020              	.LBE122:
 1021              	.LBE121:
 503:Middlewares/Third_Party/FreeRTOS/Source/timers.c **** TickType_t xNextExpireTime;
 1022              		.loc 1 503 1 view .LVU305
 1023 0008 89B0     		sub	sp, sp, #36
 1024              		.cfi_def_cfa_offset 64
 1025              	.LVL71:
 1026              	.L95:
 504:Middlewares/Third_Party/FreeRTOS/Source/timers.c **** BaseType_t xListWasEmpty;
 1027              		.loc 1 504 1 is_stmt 1 discriminator 1 view .LVU306
 505:Middlewares/Third_Party/FreeRTOS/Source/timers.c **** 
 1028              		.loc 1 505 1 discriminator 1 view .LVU307
 508:Middlewares/Third_Party/FreeRTOS/Source/timers.c **** 
 1029              		.loc 1 508 2 discriminator 1 view .LVU308
 522:Middlewares/Third_Party/FreeRTOS/Source/timers.c **** 	{
 1030              		.loc 1 522 2 discriminator 1 view .LVU309
 526:Middlewares/Third_Party/FreeRTOS/Source/timers.c **** 
 1031              		.loc 1 526 3 discriminator 1 view .LVU310
 1032              	.LBB132:
 1033              	.LBI117:
 598:Middlewares/Third_Party/FreeRTOS/Source/timers.c **** {
 1034              		.loc 1 598 19 discriminator 1 view .LVU311
 1035              	.LBB119:
 600:Middlewares/Third_Party/FreeRTOS/Source/timers.c **** 
 1036              		.loc 1 600 1 discriminator 1 view .LVU312
 609:Middlewares/Third_Party/FreeRTOS/Source/timers.c **** 	if( *pxListWasEmpty == pdFALSE )
 1037              		.loc 1 609 2 discriminator 1 view .LVU313
 609:Middlewares/Third_Party/FreeRTOS/Source/timers.c **** 	if( *pxListWasEmpty == pdFALSE )
 1038              		.loc 1 609 20 is_stmt 0 discriminator 1 view .LVU314
 1039 000a 3368     		ldr	r3, [r6]
 1040 000c 1D68     		ldr	r5, [r3]
 1041              	.LVL72:
 610:Middlewares/Third_Party/FreeRTOS/Source/timers.c **** 	{
 1042              		.loc 1 610 2 is_stmt 1 discriminator 1 view .LVU315
 610:Middlewares/Third_Party/FreeRTOS/Source/timers.c **** 	{
 1043              		.loc 1 610 4 is_stmt 0 discriminator 1 view .LVU316
 1044 000e 002D     		cmp	r5, #0
 1045 0010 33D0     		beq	.L96
 612:Middlewares/Third_Party/FreeRTOS/Source/timers.c **** 	}
 1046              		.loc 1 612 3 is_stmt 1 view .LVU317
 612:Middlewares/Third_Party/FreeRTOS/Source/timers.c **** 	}
 1047              		.loc 1 612 19 is_stmt 0 view .LVU318
 1048 0012 DB68     		ldr	r3, [r3, #12]
 1049 0014 D3F80080 		ldr	r8, [r3]
 1050              	.LVL73:
 1051              	.L71:
 620:Middlewares/Third_Party/FreeRTOS/Source/timers.c **** }
 1052              		.loc 1 620 2 is_stmt 1 view .LVU319
 620:Middlewares/Third_Party/FreeRTOS/Source/timers.c **** }
 1053              		.loc 1 620 2 is_stmt 0 view .LVU320
 1054              	.LBE119:
 1055              	.LBE132:
 530:Middlewares/Third_Party/FreeRTOS/Source/timers.c **** 
 1056              		.loc 1 530 3 is_stmt 1 view .LVU321
ARM GAS  /tmp/ccofPfel.s 			page 44


 1057              	.LBB133:
 1058              	.LBI121:
 538:Middlewares/Third_Party/FreeRTOS/Source/timers.c **** {
 1059              		.loc 1 538 13 view .LVU322
 1060              	.LBB129:
 540:Middlewares/Third_Party/FreeRTOS/Source/timers.c **** BaseType_t xTimerListsWereSwitched;
 1061              		.loc 1 540 1 view .LVU323
 541:Middlewares/Third_Party/FreeRTOS/Source/timers.c **** 
 1062              		.loc 1 541 1 view .LVU324
 543:Middlewares/Third_Party/FreeRTOS/Source/timers.c **** 	{
 1063              		.loc 1 543 2 view .LVU325
 1064 0018 FFF7FEFF 		bl	vTaskSuspendAll
 1065              	.LVL74:
 550:Middlewares/Third_Party/FreeRTOS/Source/timers.c **** 		if( xTimerListsWereSwitched == pdFALSE )
 1066              		.loc 1 550 3 view .LVU326
 550:Middlewares/Third_Party/FreeRTOS/Source/timers.c **** 		if( xTimerListsWereSwitched == pdFALSE )
 1067              		.loc 1 550 14 is_stmt 0 view .LVU327
 1068 001c 04A8     		add	r0, sp, #16
 1069 001e FFF7FEFF 		bl	prvSampleTimeNow
 1070              	.LVL75:
 551:Middlewares/Third_Party/FreeRTOS/Source/timers.c **** 		{
 1071              		.loc 1 551 31 view .LVU328
 1072 0022 049C     		ldr	r4, [sp, #16]
 550:Middlewares/Third_Party/FreeRTOS/Source/timers.c **** 		if( xTimerListsWereSwitched == pdFALSE )
 1073              		.loc 1 550 14 view .LVU329
 1074 0024 8146     		mov	r9, r0
 1075              	.LVL76:
 551:Middlewares/Third_Party/FreeRTOS/Source/timers.c **** 		{
 1076              		.loc 1 551 3 is_stmt 1 view .LVU330
 551:Middlewares/Third_Party/FreeRTOS/Source/timers.c **** 		{
 1077              		.loc 1 551 5 is_stmt 0 view .LVU331
 1078 0026 002C     		cmp	r4, #0
 1079 0028 75D1     		bne	.L72
 554:Middlewares/Third_Party/FreeRTOS/Source/timers.c **** 			{
 1080              		.loc 1 554 4 is_stmt 1 view .LVU332
 554:Middlewares/Third_Party/FreeRTOS/Source/timers.c **** 			{
 1081              		.loc 1 554 6 is_stmt 0 view .LVU333
 1082 002a 002D     		cmp	r5, #0
 1083 002c 58D0     		beq	.L73
 554:Middlewares/Third_Party/FreeRTOS/Source/timers.c **** 			{
 1084              		.loc 1 554 37 view .LVU334
 1085 002e 4045     		cmp	r0, r8
 1086 0030 5CD3     		bcc	.L74
 556:Middlewares/Third_Party/FreeRTOS/Source/timers.c **** 				prvProcessExpiredTimer( xNextExpireTime, xTimeNow );
 1087              		.loc 1 556 5 is_stmt 1 view .LVU335
 556:Middlewares/Third_Party/FreeRTOS/Source/timers.c **** 				prvProcessExpiredTimer( xNextExpireTime, xTimeNow );
 1088              		.loc 1 556 14 is_stmt 0 view .LVU336
 1089 0032 FFF7FEFF 		bl	xTaskResumeAll
 1090              	.LVL77:
 557:Middlewares/Third_Party/FreeRTOS/Source/timers.c **** 			}
 1091              		.loc 1 557 5 is_stmt 1 view .LVU337
 1092              	.LBB123:
 1093              	.LBI123:
 462:Middlewares/Third_Party/FreeRTOS/Source/timers.c **** {
 1094              		.loc 1 462 13 view .LVU338
 1095              	.LBB124:
 464:Middlewares/Third_Party/FreeRTOS/Source/timers.c **** Timer_t * const pxTimer = ( Timer_t * ) listGET_OWNER_OF_HEAD_ENTRY( pxCurrentTimerList );
ARM GAS  /tmp/ccofPfel.s 			page 45


 1096              		.loc 1 464 1 view .LVU339
 465:Middlewares/Third_Party/FreeRTOS/Source/timers.c **** 
 1097              		.loc 1 465 1 view .LVU340
 465:Middlewares/Third_Party/FreeRTOS/Source/timers.c **** 
 1098              		.loc 1 465 41 is_stmt 0 view .LVU341
 1099 0036 3368     		ldr	r3, [r6]
 465:Middlewares/Third_Party/FreeRTOS/Source/timers.c **** 
 1100              		.loc 1 465 17 view .LVU342
 1101 0038 DB68     		ldr	r3, [r3, #12]
 1102 003a DD68     		ldr	r5, [r3, #12]
 1103              	.LVL78:
 469:Middlewares/Third_Party/FreeRTOS/Source/timers.c **** 	traceTIMER_EXPIRED( pxTimer );
 1104              		.loc 1 469 2 is_stmt 1 view .LVU343
 469:Middlewares/Third_Party/FreeRTOS/Source/timers.c **** 	traceTIMER_EXPIRED( pxTimer );
 1105              		.loc 1 469 11 is_stmt 0 view .LVU344
 1106 003c 281D     		adds	r0, r5, #4
 1107 003e FFF7FEFF 		bl	uxListRemove
 1108              	.LVL79:
 470:Middlewares/Third_Party/FreeRTOS/Source/timers.c **** 
 1109              		.loc 1 470 31 is_stmt 1 view .LVU345
 474:Middlewares/Third_Party/FreeRTOS/Source/timers.c **** 	{
 1110              		.loc 1 474 2 view .LVU346
 474:Middlewares/Third_Party/FreeRTOS/Source/timers.c **** 	{
 1111              		.loc 1 474 4 is_stmt 0 view .LVU347
 1112 0042 EB69     		ldr	r3, [r5, #28]
 1113 0044 012B     		cmp	r3, #1
 1114 0046 1AD1     		bne	.L75
 479:Middlewares/Third_Party/FreeRTOS/Source/timers.c **** 		{
 1115              		.loc 1 479 3 is_stmt 1 view .LVU348
 479:Middlewares/Third_Party/FreeRTOS/Source/timers.c **** 		{
 1116              		.loc 1 479 7 is_stmt 0 view .LVU349
 1117 0048 A969     		ldr	r1, [r5, #24]
 1118 004a 4346     		mov	r3, r8
 1119 004c 4A46     		mov	r2, r9
 1120 004e 2846     		mov	r0, r5
 1121 0050 4144     		add	r1, r1, r8
 1122 0052 FFF7FEFF 		bl	prvInsertTimerInActiveList
 1123              	.LVL80:
 479:Middlewares/Third_Party/FreeRTOS/Source/timers.c **** 		{
 1124              		.loc 1 479 5 view .LVU350
 1125 0056 90B1     		cbz	r0, .L75
 483:Middlewares/Third_Party/FreeRTOS/Source/timers.c **** 			configASSERT( xResult );
 1126              		.loc 1 483 4 is_stmt 1 view .LVU351
 483:Middlewares/Third_Party/FreeRTOS/Source/timers.c **** 			configASSERT( xResult );
 1127              		.loc 1 483 14 is_stmt 0 view .LVU352
 1128 0058 2346     		mov	r3, r4
 1129 005a 4246     		mov	r2, r8
 1130 005c 2146     		mov	r1, r4
 1131 005e 2846     		mov	r0, r5
 1132 0060 0094     		str	r4, [sp]
 1133 0062 FFF7FEFF 		bl	xTimerGenericCommand
 1134              	.LVL81:
 484:Middlewares/Third_Party/FreeRTOS/Source/timers.c **** 			( void ) xResult;
 1135              		.loc 1 484 4 is_stmt 1 view .LVU353
 1136 0066 50B9     		cbnz	r0, .L75
 484:Middlewares/Third_Party/FreeRTOS/Source/timers.c **** 			( void ) xResult;
 1137              		.loc 1 484 4 view .LVU354
ARM GAS  /tmp/ccofPfel.s 			page 46


 1138              	.LBB125:
 1139              	.LBI125:
 191:Middlewares/Third_Party/FreeRTOS/Source/portable/GCC/ARM_CM3/portmacro.h **** {
 1140              		.loc 2 191 30 view .LVU355
 1141              	.LBB126:
 193:Middlewares/Third_Party/FreeRTOS/Source/portable/GCC/ARM_CM3/portmacro.h **** 
 1142              		.loc 2 193 1 view .LVU356
 1143              		.loc 2 195 2 view .LVU357
 1144              		.syntax unified
 1145              	@ 195 "Middlewares/Third_Party/FreeRTOS/Source/portable/GCC/ARM_CM3/portmacro.h" 1
 1146 0068 4FF05003 			mov r3, #80												
 1147 006c 83F31188 		msr basepri, r3											
 1148 0070 BFF36F8F 		isb														
 1149 0074 BFF34F8F 		dsb														
 1150              	
 1151              	@ 0 "" 2
 1152              	.LVL82:
 1153              		.thumb
 1154              		.syntax unified
 1155              	.L76:
 1156              		.loc 2 195 2 is_stmt 0 view .LVU358
 1157              	.LBE126:
 1158              	.LBE125:
 484:Middlewares/Third_Party/FreeRTOS/Source/timers.c **** 			( void ) xResult;
 1159              		.loc 1 484 4 is_stmt 1 view .LVU359
 484:Middlewares/Third_Party/FreeRTOS/Source/timers.c **** 			( void ) xResult;
 1160              		.loc 1 484 4 view .LVU360
 1161 0078 FEE7     		b	.L76
 1162              	.LVL83:
 1163              	.L96:
 484:Middlewares/Third_Party/FreeRTOS/Source/timers.c **** 			( void ) xResult;
 1164              		.loc 1 484 4 is_stmt 0 view .LVU361
 1165              	.LBE124:
 1166              	.LBE123:
 1167              	.LBE129:
 1168              	.LBE133:
 1169              	.LBB134:
 1170              	.LBB120:
 617:Middlewares/Third_Party/FreeRTOS/Source/timers.c **** 	}
 1171              		.loc 1 617 19 view .LVU362
 1172 007a A846     		mov	r8, r5
 1173 007c CCE7     		b	.L71
 1174              	.LVL84:
 1175              	.L75:
 617:Middlewares/Third_Party/FreeRTOS/Source/timers.c **** 	}
 1176              		.loc 1 617 19 view .LVU363
 1177              	.LBE120:
 1178              	.LBE134:
 1179              	.LBB135:
 1180              	.LBB130:
 1181              	.LBB128:
 1182              	.LBB127:
 494:Middlewares/Third_Party/FreeRTOS/Source/timers.c **** 	}
 1183              		.loc 1 494 27 is_stmt 1 view .LVU364
 498:Middlewares/Third_Party/FreeRTOS/Source/timers.c **** }
 1184              		.loc 1 498 2 view .LVU365
 1185 007e 2846     		mov	r0, r5
ARM GAS  /tmp/ccofPfel.s 			page 47


 1186 0080 6B6A     		ldr	r3, [r5, #36]
 1187 0082 9847     		blx	r3
 1188              	.LVL85:
 1189              	.L83:
 498:Middlewares/Third_Party/FreeRTOS/Source/timers.c **** }
 1190              		.loc 1 498 2 is_stmt 0 view .LVU366
 1191              	.LBE127:
 1192              	.LBE128:
 1193              	.LBE130:
 1194              	.LBE135:
 1195              	.LBB136:
 1196              	.LBB137:
 695:Middlewares/Third_Party/FreeRTOS/Source/timers.c **** 	{
 1197              		.loc 1 695 62 is_stmt 1 view .LVU367
 695:Middlewares/Third_Party/FreeRTOS/Source/timers.c **** 	{
 1198              		.loc 1 695 9 is_stmt 0 view .LVU368
 1199 0084 0022     		movs	r2, #0
 1200 0086 3868     		ldr	r0, [r7]
 1201 0088 04A9     		add	r1, sp, #16
 1202 008a FFF7FEFF 		bl	xQueueReceive
 1203              	.LVL86:
 695:Middlewares/Third_Party/FreeRTOS/Source/timers.c **** 	{
 1204              		.loc 1 695 62 view .LVU369
 1205 008e 0028     		cmp	r0, #0
 1206 0090 BBD0     		beq	.L95
 701:Middlewares/Third_Party/FreeRTOS/Source/timers.c **** 			{
 1207              		.loc 1 701 4 is_stmt 1 view .LVU370
 701:Middlewares/Third_Party/FreeRTOS/Source/timers.c **** 			{
 1208              		.loc 1 701 6 is_stmt 0 view .LVU371
 1209 0092 049B     		ldr	r3, [sp, #16]
 1210              	.LBB138:
 710:Middlewares/Third_Party/FreeRTOS/Source/timers.c **** 			}
 1211              		.loc 1 710 47 view .LVU372
 1212 0094 0698     		ldr	r0, [sp, #24]
 1213              	.LBE138:
 701:Middlewares/Third_Party/FreeRTOS/Source/timers.c **** 			{
 1214              		.loc 1 701 6 view .LVU373
 1215 0096 002B     		cmp	r3, #0
 1216 0098 40DB     		blt	.L79
 1217              	.L82:
 725:Middlewares/Third_Party/FreeRTOS/Source/timers.c **** 
 1218              		.loc 1 725 4 is_stmt 1 view .LVU374
 725:Middlewares/Third_Party/FreeRTOS/Source/timers.c **** 
 1219              		.loc 1 725 12 is_stmt 0 view .LVU375
 1220 009a 069C     		ldr	r4, [sp, #24]
 1221              	.LVL87:
 727:Middlewares/Third_Party/FreeRTOS/Source/timers.c **** 			{
 1222              		.loc 1 727 4 is_stmt 1 view .LVU376
 727:Middlewares/Third_Party/FreeRTOS/Source/timers.c **** 			{
 1223              		.loc 1 727 6 is_stmt 0 view .LVU377
 1224 009c 6369     		ldr	r3, [r4, #20]
 1225 009e 002B     		cmp	r3, #0
 1226 00a0 43D1     		bne	.L80
 1227              	.L81:
 734:Middlewares/Third_Party/FreeRTOS/Source/timers.c **** 			}
 1228              		.loc 1 734 29 is_stmt 1 view .LVU378
 737:Middlewares/Third_Party/FreeRTOS/Source/timers.c **** 
ARM GAS  /tmp/ccofPfel.s 			page 48


 1229              		.loc 1 737 106 view .LVU379
 745:Middlewares/Third_Party/FreeRTOS/Source/timers.c **** 
 1230              		.loc 1 745 4 view .LVU380
 745:Middlewares/Third_Party/FreeRTOS/Source/timers.c **** 
 1231              		.loc 1 745 15 is_stmt 0 view .LVU381
 1232 00a2 03A8     		add	r0, sp, #12
 1233 00a4 FFF7FEFF 		bl	prvSampleTimeNow
 1234              	.LVL88:
 747:Middlewares/Third_Party/FreeRTOS/Source/timers.c **** 			{
 1235              		.loc 1 747 4 view .LVU382
 1236 00a8 049B     		ldr	r3, [sp, #16]
 745:Middlewares/Third_Party/FreeRTOS/Source/timers.c **** 
 1237              		.loc 1 745 15 view .LVU383
 1238 00aa 0246     		mov	r2, r0
 1239              	.LVL89:
 747:Middlewares/Third_Party/FreeRTOS/Source/timers.c **** 			{
 1240              		.loc 1 747 4 is_stmt 1 view .LVU384
 1241 00ac 092B     		cmp	r3, #9
 1242 00ae E9D8     		bhi	.L83
 1243 00b0 01A1     		adr	r1, .L86
 1244 00b2 51F823F0 		ldr	pc, [r1, r3, lsl #2]
 1245 00b6 00BF     		.p2align 2
 1246              	.L86:
 1247 00b8 33010000 		.word	.L87+1
 1248 00bc 33010000 		.word	.L87+1
 1249 00c0 33010000 		.word	.L87+1
 1250 00c4 85000000 		.word	.L83+1
 1251 00c8 77010000 		.word	.L85+1
 1252 00cc 9B010000 		.word	.L88+1
 1253 00d0 33010000 		.word	.L87+1
 1254 00d4 33010000 		.word	.L87+1
 1255 00d8 85000000 		.word	.L83+1
 1256 00dc 77010000 		.word	.L85+1
 1257              	.LVL90:
 1258              		.p2align 1
 1259              	.L73:
 747:Middlewares/Third_Party/FreeRTOS/Source/timers.c **** 			{
 1260              		.loc 1 747 4 is_stmt 0 view .LVU385
 1261              	.LBE137:
 1262              	.LBE136:
 1263              	.LBB145:
 1264              	.LBB131:
 571:Middlewares/Third_Party/FreeRTOS/Source/timers.c **** 				}
 1265              		.loc 1 571 6 is_stmt 1 view .LVU386
 571:Middlewares/Third_Party/FreeRTOS/Source/timers.c **** 				}
 1266              		.loc 1 571 22 is_stmt 0 view .LVU387
 1267 00e0 344B     		ldr	r3, .L101+8
 1268 00e2 1B68     		ldr	r3, [r3]
 1269 00e4 1C68     		ldr	r4, [r3]
 1270 00e6 B4FA84F4 		clz	r4, r4
 1271 00ea 6409     		lsrs	r4, r4, #5
 1272              	.LVL91:
 1273              	.L74:
 574:Middlewares/Third_Party/FreeRTOS/Source/timers.c **** 
 1274              		.loc 1 574 5 is_stmt 1 view .LVU388
 1275 00ec 2246     		mov	r2, r4
 1276 00ee 3868     		ldr	r0, [r7]
ARM GAS  /tmp/ccofPfel.s 			page 49


 1277              	.LVL92:
 574:Middlewares/Third_Party/FreeRTOS/Source/timers.c **** 
 1278              		.loc 1 574 5 is_stmt 0 view .LVU389
 1279 00f0 A8EB0901 		sub	r1, r8, r9
 1280 00f4 FFF7FEFF 		bl	vQueueWaitForMessageRestricted
 1281              	.LVL93:
 576:Middlewares/Third_Party/FreeRTOS/Source/timers.c **** 				{
 1282              		.loc 1 576 5 is_stmt 1 view .LVU390
 576:Middlewares/Third_Party/FreeRTOS/Source/timers.c **** 				{
 1283              		.loc 1 576 9 is_stmt 0 view .LVU391
 1284 00f8 FFF7FEFF 		bl	xTaskResumeAll
 1285              	.LVL94:
 576:Middlewares/Third_Party/FreeRTOS/Source/timers.c **** 				{
 1286              		.loc 1 576 7 view .LVU392
 1287 00fc 0028     		cmp	r0, #0
 1288 00fe C1D1     		bne	.L83
 582:Middlewares/Third_Party/FreeRTOS/Source/timers.c **** 				}
 1289              		.loc 1 582 6 is_stmt 1 view .LVU393
 1290 0100 4FF0E023 		mov	r3, #-536813568
 1291 0104 4FF08052 		mov	r2, #268435456
 1292 0108 C3F8042D 		str	r2, [r3, #3332]
 582:Middlewares/Third_Party/FreeRTOS/Source/timers.c **** 				}
 1293              		.loc 1 582 6 view .LVU394
 1294              		.syntax unified
 1295              	@ 582 "Middlewares/Third_Party/FreeRTOS/Source/timers.c" 1
 1296 010c BFF34F8F 		dsb
 1297              	@ 0 "" 2
 582:Middlewares/Third_Party/FreeRTOS/Source/timers.c **** 				}
 1298              		.loc 1 582 6 view .LVU395
 1299              	@ 582 "Middlewares/Third_Party/FreeRTOS/Source/timers.c" 1
 1300 0110 BFF36F8F 		isb
 1301              	@ 0 "" 2
 582:Middlewares/Third_Party/FreeRTOS/Source/timers.c **** 				}
 1302              		.loc 1 582 28 view .LVU396
 1303              		.thumb
 1304              		.syntax unified
 1305 0114 B6E7     		b	.L83
 1306              	.LVL95:
 1307              	.L72:
 592:Middlewares/Third_Party/FreeRTOS/Source/timers.c **** 		}
 1308              		.loc 1 592 4 view .LVU397
 592:Middlewares/Third_Party/FreeRTOS/Source/timers.c **** 		}
 1309              		.loc 1 592 13 is_stmt 0 view .LVU398
 1310 0116 FFF7FEFF 		bl	xTaskResumeAll
 1311              	.LVL96:
 595:Middlewares/Third_Party/FreeRTOS/Source/timers.c **** /*-----------------------------------------------------------*/
 1312              		.loc 1 595 1 view .LVU399
 1313 011a B3E7     		b	.L83
 1314              	.LVL97:
 1315              	.L79:
 595:Middlewares/Third_Party/FreeRTOS/Source/timers.c **** /*-----------------------------------------------------------*/
 1316              		.loc 1 595 1 view .LVU400
 1317              	.LBE131:
 1318              	.LBE145:
 1319              	.LBB146:
 1320              	.LBB144:
 1321              	.LBB139:
ARM GAS  /tmp/ccofPfel.s 			page 50


 703:Middlewares/Third_Party/FreeRTOS/Source/timers.c **** 
 1322              		.loc 1 703 5 is_stmt 1 view .LVU401
 707:Middlewares/Third_Party/FreeRTOS/Source/timers.c **** 
 1323              		.loc 1 707 5 view .LVU402
 707:Middlewares/Third_Party/FreeRTOS/Source/timers.c **** 
 1324              		.loc 1 707 31 view .LVU403
 710:Middlewares/Third_Party/FreeRTOS/Source/timers.c **** 			}
 1325              		.loc 1 710 5 view .LVU404
 1326 011c 059B     		ldr	r3, [sp, #20]
 1327 011e 0799     		ldr	r1, [sp, #28]
 1328 0120 9847     		blx	r3
 1329              	.LVL98:
 1330              	.LBE139:
 714:Middlewares/Third_Party/FreeRTOS/Source/timers.c **** 			}
 1331              		.loc 1 714 29 view .LVU405
 721:Middlewares/Third_Party/FreeRTOS/Source/timers.c **** 		{
 1332              		.loc 1 721 3 view .LVU406
 721:Middlewares/Third_Party/FreeRTOS/Source/timers.c **** 		{
 1333              		.loc 1 721 5 is_stmt 0 view .LVU407
 1334 0122 049B     		ldr	r3, [sp, #16]
 1335 0124 002B     		cmp	r3, #0
 1336 0126 ADDB     		blt	.L83
 1337 0128 B7E7     		b	.L82
 1338              	.LVL99:
 1339              	.L80:
 730:Middlewares/Third_Party/FreeRTOS/Source/timers.c **** 			}
 1340              		.loc 1 730 5 is_stmt 1 view .LVU408
 730:Middlewares/Third_Party/FreeRTOS/Source/timers.c **** 			}
 1341              		.loc 1 730 14 is_stmt 0 view .LVU409
 1342 012a 201D     		adds	r0, r4, #4
 1343 012c FFF7FEFF 		bl	uxListRemove
 1344              	.LVL100:
 1345 0130 B7E7     		b	.L81
 1346              	.LVL101:
 1347              	.L87:
 755:Middlewares/Third_Party/FreeRTOS/Source/timers.c **** 					{
 1348              		.loc 1 755 6 is_stmt 1 view .LVU410
 755:Middlewares/Third_Party/FreeRTOS/Source/timers.c **** 					{
 1349              		.loc 1 755 10 is_stmt 0 view .LVU411
 1350 0132 A169     		ldr	r1, [r4, #24]
 1351 0134 059B     		ldr	r3, [sp, #20]
 1352 0136 2046     		mov	r0, r4
 1353              	.LVL102:
 755:Middlewares/Third_Party/FreeRTOS/Source/timers.c **** 					{
 1354              		.loc 1 755 10 view .LVU412
 1355 0138 1944     		add	r1, r1, r3
 1356 013a FFF7FEFF 		bl	prvInsertTimerInActiveList
 1357              	.LVL103:
 755:Middlewares/Third_Party/FreeRTOS/Source/timers.c **** 					{
 1358              		.loc 1 755 8 view .LVU413
 1359 013e 0028     		cmp	r0, #0
 1360 0140 A0D0     		beq	.L83
 759:Middlewares/Third_Party/FreeRTOS/Source/timers.c **** 						traceTIMER_EXPIRED( pxTimer );
 1361              		.loc 1 759 7 is_stmt 1 view .LVU414
 1362 0142 636A     		ldr	r3, [r4, #36]
 1363 0144 2046     		mov	r0, r4
 1364 0146 9847     		blx	r3
ARM GAS  /tmp/ccofPfel.s 			page 51


 1365              	.LVL104:
 760:Middlewares/Third_Party/FreeRTOS/Source/timers.c **** 
 1366              		.loc 1 760 36 view .LVU415
 762:Middlewares/Third_Party/FreeRTOS/Source/timers.c **** 						{
 1367              		.loc 1 762 7 view .LVU416
 762:Middlewares/Third_Party/FreeRTOS/Source/timers.c **** 						{
 1368              		.loc 1 762 9 is_stmt 0 view .LVU417
 1369 0148 E369     		ldr	r3, [r4, #28]
 1370 014a 012B     		cmp	r3, #1
 1371 014c 9AD1     		bne	.L83
 764:Middlewares/Third_Party/FreeRTOS/Source/timers.c **** 							configASSERT( xResult );
 1372              		.loc 1 764 8 is_stmt 1 view .LVU418
 764:Middlewares/Third_Party/FreeRTOS/Source/timers.c **** 							configASSERT( xResult );
 1373              		.loc 1 764 18 is_stmt 0 view .LVU419
 1374 014e 0023     		movs	r3, #0
 1375 0150 A269     		ldr	r2, [r4, #24]
 1376 0152 0599     		ldr	r1, [sp, #20]
 1377 0154 2046     		mov	r0, r4
 1378 0156 0A44     		add	r2, r2, r1
 1379 0158 0093     		str	r3, [sp]
 1380 015a 1946     		mov	r1, r3
 1381 015c FFF7FEFF 		bl	xTimerGenericCommand
 1382              	.LVL105:
 765:Middlewares/Third_Party/FreeRTOS/Source/timers.c **** 							( void ) xResult;
 1383              		.loc 1 765 8 is_stmt 1 view .LVU420
 1384 0160 0028     		cmp	r0, #0
 1385 0162 8FD1     		bne	.L83
 765:Middlewares/Third_Party/FreeRTOS/Source/timers.c **** 							( void ) xResult;
 1386              		.loc 1 765 8 view .LVU421
 1387              	.LBB140:
 1388              	.LBI140:
 191:Middlewares/Third_Party/FreeRTOS/Source/portable/GCC/ARM_CM3/portmacro.h **** {
 1389              		.loc 2 191 30 view .LVU422
 1390              	.LBB141:
 193:Middlewares/Third_Party/FreeRTOS/Source/portable/GCC/ARM_CM3/portmacro.h **** 
 1391              		.loc 2 193 1 view .LVU423
 1392              		.loc 2 195 2 view .LVU424
 1393              		.syntax unified
 1394              	@ 195 "Middlewares/Third_Party/FreeRTOS/Source/portable/GCC/ARM_CM3/portmacro.h" 1
 1395 0164 4FF05003 			mov r3, #80												
 1396 0168 83F31188 		msr basepri, r3											
 1397 016c BFF36F8F 		isb														
 1398 0170 BFF34F8F 		dsb														
 1399              	
 1400              	@ 0 "" 2
 1401              	.LVL106:
 1402              		.thumb
 1403              		.syntax unified
 1404              	.L91:
 1405              		.loc 2 195 2 is_stmt 0 view .LVU425
 1406              	.LBE141:
 1407              	.LBE140:
 765:Middlewares/Third_Party/FreeRTOS/Source/timers.c **** 							( void ) xResult;
 1408              		.loc 1 765 8 is_stmt 1 view .LVU426
 765:Middlewares/Third_Party/FreeRTOS/Source/timers.c **** 							( void ) xResult;
 1409              		.loc 1 765 8 view .LVU427
 1410 0174 FEE7     		b	.L91
ARM GAS  /tmp/ccofPfel.s 			page 52


 1411              	.LVL107:
 1412              	.L85:
 787:Middlewares/Third_Party/FreeRTOS/Source/timers.c **** 					configASSERT( ( pxTimer->xTimerPeriodInTicks > 0 ) );
 1413              		.loc 1 787 6 view .LVU428
 787:Middlewares/Third_Party/FreeRTOS/Source/timers.c **** 					configASSERT( ( pxTimer->xTimerPeriodInTicks > 0 ) );
 1414              		.loc 1 787 64 is_stmt 0 view .LVU429
 1415 0176 0599     		ldr	r1, [sp, #20]
 787:Middlewares/Third_Party/FreeRTOS/Source/timers.c **** 					configASSERT( ( pxTimer->xTimerPeriodInTicks > 0 ) );
 1416              		.loc 1 787 35 view .LVU430
 1417 0178 A161     		str	r1, [r4, #24]
 788:Middlewares/Third_Party/FreeRTOS/Source/timers.c **** 
 1418              		.loc 1 788 6 is_stmt 1 view .LVU431
 1419 017a 41B9     		cbnz	r1, .L92
 788:Middlewares/Third_Party/FreeRTOS/Source/timers.c **** 
 1420              		.loc 1 788 6 view .LVU432
 1421              	.LBB142:
 1422              	.LBI142:
 191:Middlewares/Third_Party/FreeRTOS/Source/portable/GCC/ARM_CM3/portmacro.h **** {
 1423              		.loc 2 191 30 view .LVU433
 1424              	.LBB143:
 193:Middlewares/Third_Party/FreeRTOS/Source/portable/GCC/ARM_CM3/portmacro.h **** 
 1425              		.loc 2 193 1 view .LVU434
 1426              		.loc 2 195 2 view .LVU435
 1427              		.syntax unified
 1428              	@ 195 "Middlewares/Third_Party/FreeRTOS/Source/portable/GCC/ARM_CM3/portmacro.h" 1
 1429 017c 4FF05003 			mov r3, #80												
 1430 0180 83F31188 		msr basepri, r3											
 1431 0184 BFF36F8F 		isb														
 1432 0188 BFF34F8F 		dsb														
 1433              	
 1434              	@ 0 "" 2
 1435              	.LVL108:
 1436              		.thumb
 1437              		.syntax unified
 1438              	.L93:
 1439              		.loc 2 195 2 is_stmt 0 view .LVU436
 1440              	.LBE143:
 1441              	.LBE142:
 788:Middlewares/Third_Party/FreeRTOS/Source/timers.c **** 
 1442              		.loc 1 788 6 is_stmt 1 view .LVU437
 788:Middlewares/Third_Party/FreeRTOS/Source/timers.c **** 
 1443              		.loc 1 788 6 view .LVU438
 1444 018c FEE7     		b	.L93
 1445              	.L92:
 788:Middlewares/Third_Party/FreeRTOS/Source/timers.c **** 
 1446              		.loc 1 788 58 view .LVU439
 796:Middlewares/Third_Party/FreeRTOS/Source/timers.c **** 					break;
 1447              		.loc 1 796 6 view .LVU440
 796:Middlewares/Third_Party/FreeRTOS/Source/timers.c **** 					break;
 1448              		.loc 1 796 15 is_stmt 0 view .LVU441
 1449 018e 0346     		mov	r3, r0
 1450 0190 0144     		add	r1, r1, r0
 1451 0192 2046     		mov	r0, r4
 1452              	.LVL109:
 796:Middlewares/Third_Party/FreeRTOS/Source/timers.c **** 					break;
 1453              		.loc 1 796 15 view .LVU442
 1454 0194 FFF7FEFF 		bl	prvInsertTimerInActiveList
ARM GAS  /tmp/ccofPfel.s 			page 53


 1455              	.LVL110:
 797:Middlewares/Third_Party/FreeRTOS/Source/timers.c **** 
 1456              		.loc 1 797 6 is_stmt 1 view .LVU443
 1457 0198 74E7     		b	.L83
 1458              	.LVL111:
 1459              	.L88:
 814:Middlewares/Third_Party/FreeRTOS/Source/timers.c **** 						{
 1460              		.loc 1 814 7 view .LVU444
 814:Middlewares/Third_Party/FreeRTOS/Source/timers.c **** 						{
 1461              		.loc 1 814 9 is_stmt 0 view .LVU445
 1462 019a 94F82C30 		ldrb	r3, [r4, #44]	@ zero_extendqisi2
 1463 019e 002B     		cmp	r3, #0
 1464 01a0 7FF470AF 		bne	.L83
 816:Middlewares/Third_Party/FreeRTOS/Source/timers.c **** 						}
 1465              		.loc 1 816 8 is_stmt 1 view .LVU446
 1466 01a4 2046     		mov	r0, r4
 1467              	.LVL112:
 816:Middlewares/Third_Party/FreeRTOS/Source/timers.c **** 						}
 1468              		.loc 1 816 8 is_stmt 0 view .LVU447
 1469 01a6 FFF7FEFF 		bl	vPortFree
 1470              	.LVL113:
 816:Middlewares/Third_Party/FreeRTOS/Source/timers.c **** 						}
 1471              		.loc 1 816 8 view .LVU448
 1472 01aa 6BE7     		b	.L83
 1473              	.L102:
 1474              		.align	2
 1475              	.L101:
 1476 01ac 00000000 		.word	pxCurrentTimerList
 1477 01b0 00000000 		.word	xTimerQueue
 1478 01b4 00000000 		.word	pxOverflowTimerList
 1479              	.LBE144:
 1480              	.LBE146:
 1481              		.cfi_endproc
 1482              	.LFE14:
 1484              		.section	.text.xTimerGetTimerDaemonTaskHandle,"ax",%progbits
 1485              		.align	1
 1486              		.global	xTimerGetTimerDaemonTaskHandle
 1487              		.syntax unified
 1488              		.thumb
 1489              		.thumb_func
 1491              	xTimerGetTimerDaemonTaskHandle:
 1492              	.LFB9:
 425:Middlewares/Third_Party/FreeRTOS/Source/timers.c **** 	/* If xTimerGetTimerDaemonTaskHandle() is called before the scheduler has been
 1493              		.loc 1 425 1 is_stmt 1 view -0
 1494              		.cfi_startproc
 1495              		@ args = 0, pretend = 0, frame = 0
 1496              		@ frame_needed = 0, uses_anonymous_args = 0
 1497              		@ link register save eliminated.
 428:Middlewares/Third_Party/FreeRTOS/Source/timers.c **** 	return xTimerTaskHandle;
 1498              		.loc 1 428 2 view .LVU450
 1499 0000 064B     		ldr	r3, .L106
 1500 0002 1868     		ldr	r0, [r3]
 1501 0004 40B9     		cbnz	r0, .L103
 428:Middlewares/Third_Party/FreeRTOS/Source/timers.c **** 	return xTimerTaskHandle;
 1502              		.loc 1 428 2 view .LVU451
 1503              	.LBB147:
 1504              	.LBI147:
ARM GAS  /tmp/ccofPfel.s 			page 54


 191:Middlewares/Third_Party/FreeRTOS/Source/portable/GCC/ARM_CM3/portmacro.h **** {
 1505              		.loc 2 191 30 view .LVU452
 1506              	.LBB148:
 193:Middlewares/Third_Party/FreeRTOS/Source/portable/GCC/ARM_CM3/portmacro.h **** 
 1507              		.loc 2 193 1 view .LVU453
 1508              		.loc 2 195 2 view .LVU454
 1509              		.syntax unified
 1510              	@ 195 "Middlewares/Third_Party/FreeRTOS/Source/portable/GCC/ARM_CM3/portmacro.h" 1
 1511 0006 4FF05003 			mov r3, #80												
 1512 000a 83F31188 		msr basepri, r3											
 1513 000e BFF36F8F 		isb														
 1514 0012 BFF34F8F 		dsb														
 1515              	
 1516              	@ 0 "" 2
 1517              	.LVL114:
 1518              		.thumb
 1519              		.syntax unified
 1520              	.L105:
 1521              		.loc 2 195 2 is_stmt 0 view .LVU455
 1522              	.LBE148:
 1523              	.LBE147:
 428:Middlewares/Third_Party/FreeRTOS/Source/timers.c **** 	return xTimerTaskHandle;
 1524              		.loc 1 428 2 is_stmt 1 discriminator 1 view .LVU456
 428:Middlewares/Third_Party/FreeRTOS/Source/timers.c **** 	return xTimerTaskHandle;
 1525              		.loc 1 428 2 discriminator 1 view .LVU457
 1526 0016 FEE7     		b	.L105
 1527              	.L103:
 430:Middlewares/Third_Party/FreeRTOS/Source/timers.c **** /*-----------------------------------------------------------*/
 1528              		.loc 1 430 1 is_stmt 0 view .LVU458
 1529 0018 7047     		bx	lr
 1530              	.L107:
 1531 001a 00BF     		.align	2
 1532              	.L106:
 1533 001c 00000000 		.word	xTimerTaskHandle
 1534              		.cfi_endproc
 1535              	.LFE9:
 1537              		.section	.text.xTimerGetPeriod,"ax",%progbits
 1538              		.align	1
 1539              		.global	xTimerGetPeriod
 1540              		.syntax unified
 1541              		.thumb
 1542              		.thumb_func
 1544              	xTimerGetPeriod:
 1545              	.LVL115:
 1546              	.LFB10:
 434:Middlewares/Third_Party/FreeRTOS/Source/timers.c **** Timer_t *pxTimer = ( Timer_t * ) xTimer;
 1547              		.loc 1 434 1 is_stmt 1 view -0
 1548              		.cfi_startproc
 1549              		@ args = 0, pretend = 0, frame = 0
 1550              		@ frame_needed = 0, uses_anonymous_args = 0
 1551              		@ link register save eliminated.
 435:Middlewares/Third_Party/FreeRTOS/Source/timers.c **** 
 1552              		.loc 1 435 1 view .LVU460
 437:Middlewares/Third_Party/FreeRTOS/Source/timers.c **** 	return pxTimer->xTimerPeriodInTicks;
 1553              		.loc 1 437 2 view .LVU461
 1554 0000 40B9     		cbnz	r0, .L109
 437:Middlewares/Third_Party/FreeRTOS/Source/timers.c **** 	return pxTimer->xTimerPeriodInTicks;
ARM GAS  /tmp/ccofPfel.s 			page 55


 1555              		.loc 1 437 2 view .LVU462
 1556              	.LBB149:
 1557              	.LBI149:
 191:Middlewares/Third_Party/FreeRTOS/Source/portable/GCC/ARM_CM3/portmacro.h **** {
 1558              		.loc 2 191 30 view .LVU463
 1559              	.LBB150:
 193:Middlewares/Third_Party/FreeRTOS/Source/portable/GCC/ARM_CM3/portmacro.h **** 
 1560              		.loc 2 193 1 view .LVU464
 1561              		.loc 2 195 2 view .LVU465
 1562              		.syntax unified
 1563              	@ 195 "Middlewares/Third_Party/FreeRTOS/Source/portable/GCC/ARM_CM3/portmacro.h" 1
 1564 0002 4FF05003 			mov r3, #80												
 1565 0006 83F31188 		msr basepri, r3											
 1566 000a BFF36F8F 		isb														
 1567 000e BFF34F8F 		dsb														
 1568              	
 1569              	@ 0 "" 2
 1570              	.LVL116:
 1571              		.thumb
 1572              		.syntax unified
 1573              	.L110:
 1574              		.loc 2 195 2 is_stmt 0 view .LVU466
 1575              	.LBE150:
 1576              	.LBE149:
 437:Middlewares/Third_Party/FreeRTOS/Source/timers.c **** 	return pxTimer->xTimerPeriodInTicks;
 1577              		.loc 1 437 2 is_stmt 1 discriminator 1 view .LVU467
 437:Middlewares/Third_Party/FreeRTOS/Source/timers.c **** 	return pxTimer->xTimerPeriodInTicks;
 1578              		.loc 1 437 2 discriminator 1 view .LVU468
 1579 0012 FEE7     		b	.L110
 1580              	.L109:
 437:Middlewares/Third_Party/FreeRTOS/Source/timers.c **** 	return pxTimer->xTimerPeriodInTicks;
 1581              		.loc 1 437 24 discriminator 2 view .LVU469
 438:Middlewares/Third_Party/FreeRTOS/Source/timers.c **** }
 1582              		.loc 1 438 2 discriminator 2 view .LVU470
 439:Middlewares/Third_Party/FreeRTOS/Source/timers.c **** /*-----------------------------------------------------------*/
 1583              		.loc 1 439 1 is_stmt 0 discriminator 2 view .LVU471
 1584 0014 8069     		ldr	r0, [r0, #24]
 1585              	.LVL117:
 439:Middlewares/Third_Party/FreeRTOS/Source/timers.c **** /*-----------------------------------------------------------*/
 1586              		.loc 1 439 1 discriminator 2 view .LVU472
 1587 0016 7047     		bx	lr
 1588              		.cfi_endproc
 1589              	.LFE10:
 1591              		.section	.text.xTimerGetExpiryTime,"ax",%progbits
 1592              		.align	1
 1593              		.global	xTimerGetExpiryTime
 1594              		.syntax unified
 1595              		.thumb
 1596              		.thumb_func
 1598              	xTimerGetExpiryTime:
 1599              	.LVL118:
 1600              	.LFB11:
 443:Middlewares/Third_Party/FreeRTOS/Source/timers.c **** Timer_t * pxTimer = ( Timer_t * ) xTimer;
 1601              		.loc 1 443 1 is_stmt 1 view -0
 1602              		.cfi_startproc
 1603              		@ args = 0, pretend = 0, frame = 0
 1604              		@ frame_needed = 0, uses_anonymous_args = 0
ARM GAS  /tmp/ccofPfel.s 			page 56


 1605              		@ link register save eliminated.
 444:Middlewares/Third_Party/FreeRTOS/Source/timers.c **** TickType_t xReturn;
 1606              		.loc 1 444 1 view .LVU474
 445:Middlewares/Third_Party/FreeRTOS/Source/timers.c **** 
 1607              		.loc 1 445 1 view .LVU475
 447:Middlewares/Third_Party/FreeRTOS/Source/timers.c **** 	xReturn = listGET_LIST_ITEM_VALUE( &( pxTimer->xTimerListItem ) );
 1608              		.loc 1 447 2 view .LVU476
 1609 0000 40B9     		cbnz	r0, .L112
 447:Middlewares/Third_Party/FreeRTOS/Source/timers.c **** 	xReturn = listGET_LIST_ITEM_VALUE( &( pxTimer->xTimerListItem ) );
 1610              		.loc 1 447 2 view .LVU477
 1611              	.LBB151:
 1612              	.LBI151:
 191:Middlewares/Third_Party/FreeRTOS/Source/portable/GCC/ARM_CM3/portmacro.h **** {
 1613              		.loc 2 191 30 view .LVU478
 1614              	.LBB152:
 193:Middlewares/Third_Party/FreeRTOS/Source/portable/GCC/ARM_CM3/portmacro.h **** 
 1615              		.loc 2 193 1 view .LVU479
 1616              		.loc 2 195 2 view .LVU480
 1617              		.syntax unified
 1618              	@ 195 "Middlewares/Third_Party/FreeRTOS/Source/portable/GCC/ARM_CM3/portmacro.h" 1
 1619 0002 4FF05003 			mov r3, #80												
 1620 0006 83F31188 		msr basepri, r3											
 1621 000a BFF36F8F 		isb														
 1622 000e BFF34F8F 		dsb														
 1623              	
 1624              	@ 0 "" 2
 1625              	.LVL119:
 1626              		.thumb
 1627              		.syntax unified
 1628              	.L113:
 1629              		.loc 2 195 2 is_stmt 0 view .LVU481
 1630              	.LBE152:
 1631              	.LBE151:
 447:Middlewares/Third_Party/FreeRTOS/Source/timers.c **** 	xReturn = listGET_LIST_ITEM_VALUE( &( pxTimer->xTimerListItem ) );
 1632              		.loc 1 447 2 is_stmt 1 discriminator 1 view .LVU482
 447:Middlewares/Third_Party/FreeRTOS/Source/timers.c **** 	xReturn = listGET_LIST_ITEM_VALUE( &( pxTimer->xTimerListItem ) );
 1633              		.loc 1 447 2 discriminator 1 view .LVU483
 1634 0012 FEE7     		b	.L113
 1635              	.L112:
 447:Middlewares/Third_Party/FreeRTOS/Source/timers.c **** 	xReturn = listGET_LIST_ITEM_VALUE( &( pxTimer->xTimerListItem ) );
 1636              		.loc 1 447 24 discriminator 2 view .LVU484
 448:Middlewares/Third_Party/FreeRTOS/Source/timers.c **** 	return xReturn;
 1637              		.loc 1 448 2 discriminator 2 view .LVU485
 1638              	.LVL120:
 449:Middlewares/Third_Party/FreeRTOS/Source/timers.c **** }
 1639              		.loc 1 449 2 discriminator 2 view .LVU486
 450:Middlewares/Third_Party/FreeRTOS/Source/timers.c **** /*-----------------------------------------------------------*/
 1640              		.loc 1 450 1 is_stmt 0 discriminator 2 view .LVU487
 1641 0014 4068     		ldr	r0, [r0, #4]
 1642              	.LVL121:
 450:Middlewares/Third_Party/FreeRTOS/Source/timers.c **** /*-----------------------------------------------------------*/
 1643              		.loc 1 450 1 discriminator 2 view .LVU488
 1644 0016 7047     		bx	lr
 1645              		.cfi_endproc
 1646              	.LFE11:
 1648              		.section	.text.pcTimerGetName,"ax",%progbits
 1649              		.align	1
ARM GAS  /tmp/ccofPfel.s 			page 57


 1650              		.global	pcTimerGetName
 1651              		.syntax unified
 1652              		.thumb
 1653              		.thumb_func
 1655              	pcTimerGetName:
 1656              	.LVL122:
 1657              	.LFB12:
 454:Middlewares/Third_Party/FreeRTOS/Source/timers.c **** Timer_t *pxTimer = ( Timer_t * ) xTimer;
 1658              		.loc 1 454 1 is_stmt 1 view -0
 1659              		.cfi_startproc
 1660              		@ args = 0, pretend = 0, frame = 0
 1661              		@ frame_needed = 0, uses_anonymous_args = 0
 1662              		@ link register save eliminated.
 455:Middlewares/Third_Party/FreeRTOS/Source/timers.c **** 
 1663              		.loc 1 455 1 view .LVU490
 457:Middlewares/Third_Party/FreeRTOS/Source/timers.c **** 	return pxTimer->pcTimerName;
 1664              		.loc 1 457 2 view .LVU491
 1665 0000 40B9     		cbnz	r0, .L115
 457:Middlewares/Third_Party/FreeRTOS/Source/timers.c **** 	return pxTimer->pcTimerName;
 1666              		.loc 1 457 2 view .LVU492
 1667              	.LBB153:
 1668              	.LBI153:
 191:Middlewares/Third_Party/FreeRTOS/Source/portable/GCC/ARM_CM3/portmacro.h **** {
 1669              		.loc 2 191 30 view .LVU493
 1670              	.LBB154:
 193:Middlewares/Third_Party/FreeRTOS/Source/portable/GCC/ARM_CM3/portmacro.h **** 
 1671              		.loc 2 193 1 view .LVU494
 1672              		.loc 2 195 2 view .LVU495
 1673              		.syntax unified
 1674              	@ 195 "Middlewares/Third_Party/FreeRTOS/Source/portable/GCC/ARM_CM3/portmacro.h" 1
 1675 0002 4FF05003 			mov r3, #80												
 1676 0006 83F31188 		msr basepri, r3											
 1677 000a BFF36F8F 		isb														
 1678 000e BFF34F8F 		dsb														
 1679              	
 1680              	@ 0 "" 2
 1681              	.LVL123:
 1682              		.thumb
 1683              		.syntax unified
 1684              	.L116:
 1685              		.loc 2 195 2 is_stmt 0 view .LVU496
 1686              	.LBE154:
 1687              	.LBE153:
 457:Middlewares/Third_Party/FreeRTOS/Source/timers.c **** 	return pxTimer->pcTimerName;
 1688              		.loc 1 457 2 is_stmt 1 discriminator 1 view .LVU497
 457:Middlewares/Third_Party/FreeRTOS/Source/timers.c **** 	return pxTimer->pcTimerName;
 1689              		.loc 1 457 2 discriminator 1 view .LVU498
 1690 0012 FEE7     		b	.L116
 1691              	.L115:
 457:Middlewares/Third_Party/FreeRTOS/Source/timers.c **** 	return pxTimer->pcTimerName;
 1692              		.loc 1 457 24 discriminator 2 view .LVU499
 458:Middlewares/Third_Party/FreeRTOS/Source/timers.c **** }
 1693              		.loc 1 458 2 discriminator 2 view .LVU500
 459:Middlewares/Third_Party/FreeRTOS/Source/timers.c **** /*-----------------------------------------------------------*/
 1694              		.loc 1 459 1 is_stmt 0 discriminator 2 view .LVU501
 1695 0014 0068     		ldr	r0, [r0]
 1696              	.LVL124:
ARM GAS  /tmp/ccofPfel.s 			page 58


 459:Middlewares/Third_Party/FreeRTOS/Source/timers.c **** /*-----------------------------------------------------------*/
 1697              		.loc 1 459 1 discriminator 2 view .LVU502
 1698 0016 7047     		bx	lr
 1699              		.cfi_endproc
 1700              	.LFE12:
 1702              		.section	.text.xTimerIsTimerActive,"ax",%progbits
 1703              		.align	1
 1704              		.global	xTimerIsTimerActive
 1705              		.syntax unified
 1706              		.thumb
 1707              		.thumb_func
 1709              	xTimerIsTimerActive:
 1710              	.LVL125:
 1711              	.LFB22:
 943:Middlewares/Third_Party/FreeRTOS/Source/timers.c **** /*-----------------------------------------------------------*/
 944:Middlewares/Third_Party/FreeRTOS/Source/timers.c **** 
 945:Middlewares/Third_Party/FreeRTOS/Source/timers.c **** BaseType_t xTimerIsTimerActive( TimerHandle_t xTimer )
 946:Middlewares/Third_Party/FreeRTOS/Source/timers.c **** {
 1712              		.loc 1 946 1 is_stmt 1 view -0
 1713              		.cfi_startproc
 1714              		@ args = 0, pretend = 0, frame = 0
 1715              		@ frame_needed = 0, uses_anonymous_args = 0
 947:Middlewares/Third_Party/FreeRTOS/Source/timers.c **** BaseType_t xTimerIsInActiveList;
 1716              		.loc 1 947 1 view .LVU504
 948:Middlewares/Third_Party/FreeRTOS/Source/timers.c **** Timer_t *pxTimer = ( Timer_t * ) xTimer;
 1717              		.loc 1 948 1 view .LVU505
 949:Middlewares/Third_Party/FreeRTOS/Source/timers.c **** 
 950:Middlewares/Third_Party/FreeRTOS/Source/timers.c **** 	configASSERT( xTimer );
 1718              		.loc 1 950 2 view .LVU506
 946:Middlewares/Third_Party/FreeRTOS/Source/timers.c **** BaseType_t xTimerIsInActiveList;
 1719              		.loc 1 946 1 is_stmt 0 view .LVU507
 1720 0000 10B5     		push	{r4, lr}
 1721              		.cfi_def_cfa_offset 8
 1722              		.cfi_offset 4, -8
 1723              		.cfi_offset 14, -4
 1724              		.loc 1 950 2 view .LVU508
 1725 0002 0446     		mov	r4, r0
 1726 0004 40B9     		cbnz	r0, .L118
 1727              		.loc 1 950 2 is_stmt 1 view .LVU509
 1728              	.LBB155:
 1729              	.LBI155:
 191:Middlewares/Third_Party/FreeRTOS/Source/portable/GCC/ARM_CM3/portmacro.h **** {
 1730              		.loc 2 191 30 view .LVU510
 1731              	.LBB156:
 193:Middlewares/Third_Party/FreeRTOS/Source/portable/GCC/ARM_CM3/portmacro.h **** 
 1732              		.loc 2 193 1 view .LVU511
 1733              		.loc 2 195 2 view .LVU512
 1734              		.syntax unified
 1735              	@ 195 "Middlewares/Third_Party/FreeRTOS/Source/portable/GCC/ARM_CM3/portmacro.h" 1
 1736 0006 4FF05003 			mov r3, #80												
 1737 000a 83F31188 		msr basepri, r3											
 1738 000e BFF36F8F 		isb														
 1739 0012 BFF34F8F 		dsb														
 1740              	
 1741              	@ 0 "" 2
 1742              	.LVL126:
 1743              		.thumb
ARM GAS  /tmp/ccofPfel.s 			page 59


 1744              		.syntax unified
 1745              	.L119:
 1746              		.loc 2 195 2 is_stmt 0 view .LVU513
 1747              	.LBE156:
 1748              	.LBE155:
 1749              		.loc 1 950 2 is_stmt 1 discriminator 1 view .LVU514
 1750              		.loc 1 950 2 discriminator 1 view .LVU515
 1751 0016 FEE7     		b	.L119
 1752              	.L118:
 1753              		.loc 1 950 24 discriminator 2 view .LVU516
 951:Middlewares/Third_Party/FreeRTOS/Source/timers.c **** 
 952:Middlewares/Third_Party/FreeRTOS/Source/timers.c **** 	/* Is the timer in the list of active timers? */
 953:Middlewares/Third_Party/FreeRTOS/Source/timers.c **** 	taskENTER_CRITICAL();
 1754              		.loc 1 953 2 discriminator 2 view .LVU517
 1755 0018 FFF7FEFF 		bl	vPortEnterCritical
 1756              	.LVL127:
 954:Middlewares/Third_Party/FreeRTOS/Source/timers.c **** 	{
 955:Middlewares/Third_Party/FreeRTOS/Source/timers.c **** 		/* Checking to see if it is in the NULL list in effect checks to see if
 956:Middlewares/Third_Party/FreeRTOS/Source/timers.c **** 		it is referenced from either the current or the overflow timer lists in
 957:Middlewares/Third_Party/FreeRTOS/Source/timers.c **** 		one go, but the logic has to be reversed, hence the '!'. */
 958:Middlewares/Third_Party/FreeRTOS/Source/timers.c **** 		xTimerIsInActiveList = ( BaseType_t ) !( listIS_CONTAINED_WITHIN( NULL, &( pxTimer->xTimerListIte
 1757              		.loc 1 958 3 discriminator 2 view .LVU518
 1758              		.loc 1 958 26 is_stmt 0 discriminator 2 view .LVU519
 1759 001c 6469     		ldr	r4, [r4, #20]
 1760              	.LVL128:
 1761              		.loc 1 958 26 discriminator 2 view .LVU520
 1762 001e 003C     		subs	r4, r4, #0
 1763 0020 18BF     		it	ne
 1764 0022 0124     		movne	r4, #1
 1765              	.LVL129:
 959:Middlewares/Third_Party/FreeRTOS/Source/timers.c **** 	}
 960:Middlewares/Third_Party/FreeRTOS/Source/timers.c **** 	taskEXIT_CRITICAL();
 1766              		.loc 1 960 2 is_stmt 1 discriminator 2 view .LVU521
 1767 0024 FFF7FEFF 		bl	vPortExitCritical
 1768              	.LVL130:
 961:Middlewares/Third_Party/FreeRTOS/Source/timers.c **** 
 962:Middlewares/Third_Party/FreeRTOS/Source/timers.c **** 	return xTimerIsInActiveList;
 1769              		.loc 1 962 2 discriminator 2 view .LVU522
 963:Middlewares/Third_Party/FreeRTOS/Source/timers.c **** } /*lint !e818 Can't be pointer to const due to the typedef. */
 1770              		.loc 1 963 1 is_stmt 0 discriminator 2 view .LVU523
 1771 0028 2046     		mov	r0, r4
 1772 002a 10BD     		pop	{r4, pc}
 1773              		.loc 1 963 1 discriminator 2 view .LVU524
 1774              		.cfi_endproc
 1775              	.LFE22:
 1777              		.section	.text.pvTimerGetTimerID,"ax",%progbits
 1778              		.align	1
 1779              		.global	pvTimerGetTimerID
 1780              		.syntax unified
 1781              		.thumb
 1782              		.thumb_func
 1784              	pvTimerGetTimerID:
 1785              	.LVL131:
 1786              	.LFB23:
 964:Middlewares/Third_Party/FreeRTOS/Source/timers.c **** /*-----------------------------------------------------------*/
 965:Middlewares/Third_Party/FreeRTOS/Source/timers.c **** 
 966:Middlewares/Third_Party/FreeRTOS/Source/timers.c **** void *pvTimerGetTimerID( const TimerHandle_t xTimer )
ARM GAS  /tmp/ccofPfel.s 			page 60


 967:Middlewares/Third_Party/FreeRTOS/Source/timers.c **** {
 1787              		.loc 1 967 1 is_stmt 1 view -0
 1788              		.cfi_startproc
 1789              		@ args = 0, pretend = 0, frame = 0
 1790              		@ frame_needed = 0, uses_anonymous_args = 0
 968:Middlewares/Third_Party/FreeRTOS/Source/timers.c **** Timer_t * const pxTimer = ( Timer_t * ) xTimer;
 1791              		.loc 1 968 1 view .LVU526
 969:Middlewares/Third_Party/FreeRTOS/Source/timers.c **** void *pvReturn;
 1792              		.loc 1 969 1 view .LVU527
 970:Middlewares/Third_Party/FreeRTOS/Source/timers.c **** 
 971:Middlewares/Third_Party/FreeRTOS/Source/timers.c **** 	configASSERT( xTimer );
 1793              		.loc 1 971 2 view .LVU528
 967:Middlewares/Third_Party/FreeRTOS/Source/timers.c **** Timer_t * const pxTimer = ( Timer_t * ) xTimer;
 1794              		.loc 1 967 1 is_stmt 0 view .LVU529
 1795 0000 10B5     		push	{r4, lr}
 1796              		.cfi_def_cfa_offset 8
 1797              		.cfi_offset 4, -8
 1798              		.cfi_offset 14, -4
 1799              		.loc 1 971 2 view .LVU530
 1800 0002 0446     		mov	r4, r0
 1801 0004 40B9     		cbnz	r0, .L121
 1802              		.loc 1 971 2 is_stmt 1 view .LVU531
 1803              	.LBB157:
 1804              	.LBI157:
 191:Middlewares/Third_Party/FreeRTOS/Source/portable/GCC/ARM_CM3/portmacro.h **** {
 1805              		.loc 2 191 30 view .LVU532
 1806              	.LBB158:
 193:Middlewares/Third_Party/FreeRTOS/Source/portable/GCC/ARM_CM3/portmacro.h **** 
 1807              		.loc 2 193 1 view .LVU533
 1808              		.loc 2 195 2 view .LVU534
 1809              		.syntax unified
 1810              	@ 195 "Middlewares/Third_Party/FreeRTOS/Source/portable/GCC/ARM_CM3/portmacro.h" 1
 1811 0006 4FF05003 			mov r3, #80												
 1812 000a 83F31188 		msr basepri, r3											
 1813 000e BFF36F8F 		isb														
 1814 0012 BFF34F8F 		dsb														
 1815              	
 1816              	@ 0 "" 2
 1817              	.LVL132:
 1818              		.thumb
 1819              		.syntax unified
 1820              	.L122:
 1821              		.loc 2 195 2 is_stmt 0 view .LVU535
 1822              	.LBE158:
 1823              	.LBE157:
 1824              		.loc 1 971 2 is_stmt 1 discriminator 1 view .LVU536
 1825              		.loc 1 971 2 discriminator 1 view .LVU537
 1826 0016 FEE7     		b	.L122
 1827              	.L121:
 1828              		.loc 1 971 24 discriminator 2 view .LVU538
 972:Middlewares/Third_Party/FreeRTOS/Source/timers.c **** 
 973:Middlewares/Third_Party/FreeRTOS/Source/timers.c **** 	taskENTER_CRITICAL();
 1829              		.loc 1 973 2 discriminator 2 view .LVU539
 1830 0018 FFF7FEFF 		bl	vPortEnterCritical
 1831              	.LVL133:
 974:Middlewares/Third_Party/FreeRTOS/Source/timers.c **** 	{
 975:Middlewares/Third_Party/FreeRTOS/Source/timers.c **** 		pvReturn = pxTimer->pvTimerID;
ARM GAS  /tmp/ccofPfel.s 			page 61


 1832              		.loc 1 975 3 discriminator 2 view .LVU540
 1833              		.loc 1 975 12 is_stmt 0 discriminator 2 view .LVU541
 1834 001c 246A     		ldr	r4, [r4, #32]
 1835              	.LVL134:
 976:Middlewares/Third_Party/FreeRTOS/Source/timers.c **** 	}
 977:Middlewares/Third_Party/FreeRTOS/Source/timers.c **** 	taskEXIT_CRITICAL();
 1836              		.loc 1 977 2 is_stmt 1 discriminator 2 view .LVU542
 1837 001e FFF7FEFF 		bl	vPortExitCritical
 1838              	.LVL135:
 978:Middlewares/Third_Party/FreeRTOS/Source/timers.c **** 
 979:Middlewares/Third_Party/FreeRTOS/Source/timers.c **** 	return pvReturn;
 1839              		.loc 1 979 2 discriminator 2 view .LVU543
 980:Middlewares/Third_Party/FreeRTOS/Source/timers.c **** }
 1840              		.loc 1 980 1 is_stmt 0 discriminator 2 view .LVU544
 1841 0022 2046     		mov	r0, r4
 1842 0024 10BD     		pop	{r4, pc}
 1843              		.loc 1 980 1 discriminator 2 view .LVU545
 1844              		.cfi_endproc
 1845              	.LFE23:
 1847              		.section	.text.vTimerSetTimerID,"ax",%progbits
 1848              		.align	1
 1849              		.global	vTimerSetTimerID
 1850              		.syntax unified
 1851              		.thumb
 1852              		.thumb_func
 1854              	vTimerSetTimerID:
 1855              	.LVL136:
 1856              	.LFB24:
 981:Middlewares/Third_Party/FreeRTOS/Source/timers.c **** /*-----------------------------------------------------------*/
 982:Middlewares/Third_Party/FreeRTOS/Source/timers.c **** 
 983:Middlewares/Third_Party/FreeRTOS/Source/timers.c **** void vTimerSetTimerID( TimerHandle_t xTimer, void *pvNewID )
 984:Middlewares/Third_Party/FreeRTOS/Source/timers.c **** {
 1857              		.loc 1 984 1 is_stmt 1 view -0
 1858              		.cfi_startproc
 1859              		@ args = 0, pretend = 0, frame = 0
 1860              		@ frame_needed = 0, uses_anonymous_args = 0
 985:Middlewares/Third_Party/FreeRTOS/Source/timers.c **** Timer_t * const pxTimer = ( Timer_t * ) xTimer;
 1861              		.loc 1 985 1 view .LVU547
 986:Middlewares/Third_Party/FreeRTOS/Source/timers.c **** 
 987:Middlewares/Third_Party/FreeRTOS/Source/timers.c **** 	configASSERT( xTimer );
 1862              		.loc 1 987 2 view .LVU548
 984:Middlewares/Third_Party/FreeRTOS/Source/timers.c **** Timer_t * const pxTimer = ( Timer_t * ) xTimer;
 1863              		.loc 1 984 1 is_stmt 0 view .LVU549
 1864 0000 38B5     		push	{r3, r4, r5, lr}
 1865              		.cfi_def_cfa_offset 16
 1866              		.cfi_offset 3, -16
 1867              		.cfi_offset 4, -12
 1868              		.cfi_offset 5, -8
 1869              		.cfi_offset 14, -4
 984:Middlewares/Third_Party/FreeRTOS/Source/timers.c **** Timer_t * const pxTimer = ( Timer_t * ) xTimer;
 1870              		.loc 1 984 1 view .LVU550
 1871 0002 0D46     		mov	r5, r1
 1872              		.loc 1 987 2 view .LVU551
 1873 0004 0446     		mov	r4, r0
 1874 0006 40B9     		cbnz	r0, .L124
 1875              		.loc 1 987 2 is_stmt 1 view .LVU552
 1876              	.LBB159:
ARM GAS  /tmp/ccofPfel.s 			page 62


 1877              	.LBI159:
 191:Middlewares/Third_Party/FreeRTOS/Source/portable/GCC/ARM_CM3/portmacro.h **** {
 1878              		.loc 2 191 30 view .LVU553
 1879              	.LBB160:
 193:Middlewares/Third_Party/FreeRTOS/Source/portable/GCC/ARM_CM3/portmacro.h **** 
 1880              		.loc 2 193 1 view .LVU554
 1881              		.loc 2 195 2 view .LVU555
 1882              		.syntax unified
 1883              	@ 195 "Middlewares/Third_Party/FreeRTOS/Source/portable/GCC/ARM_CM3/portmacro.h" 1
 1884 0008 4FF05003 			mov r3, #80												
 1885 000c 83F31188 		msr basepri, r3											
 1886 0010 BFF36F8F 		isb														
 1887 0014 BFF34F8F 		dsb														
 1888              	
 1889              	@ 0 "" 2
 1890              	.LVL137:
 1891              		.thumb
 1892              		.syntax unified
 1893              	.L125:
 1894              		.loc 2 195 2 is_stmt 0 view .LVU556
 1895              	.LBE160:
 1896              	.LBE159:
 1897              		.loc 1 987 2 is_stmt 1 discriminator 1 view .LVU557
 1898              		.loc 1 987 2 discriminator 1 view .LVU558
 1899 0018 FEE7     		b	.L125
 1900              	.L124:
 1901              		.loc 1 987 24 discriminator 2 view .LVU559
 988:Middlewares/Third_Party/FreeRTOS/Source/timers.c **** 
 989:Middlewares/Third_Party/FreeRTOS/Source/timers.c **** 	taskENTER_CRITICAL();
 1902              		.loc 1 989 2 discriminator 2 view .LVU560
 1903 001a FFF7FEFF 		bl	vPortEnterCritical
 1904              	.LVL138:
 990:Middlewares/Third_Party/FreeRTOS/Source/timers.c **** 	{
 991:Middlewares/Third_Party/FreeRTOS/Source/timers.c **** 		pxTimer->pvTimerID = pvNewID;
 1905              		.loc 1 991 3 discriminator 2 view .LVU561
 1906              		.loc 1 991 22 is_stmt 0 discriminator 2 view .LVU562
 1907 001e 2562     		str	r5, [r4, #32]
 992:Middlewares/Third_Party/FreeRTOS/Source/timers.c **** 	}
 993:Middlewares/Third_Party/FreeRTOS/Source/timers.c **** 	taskEXIT_CRITICAL();
 1908              		.loc 1 993 2 is_stmt 1 discriminator 2 view .LVU563
 994:Middlewares/Third_Party/FreeRTOS/Source/timers.c **** }
 1909              		.loc 1 994 1 is_stmt 0 discriminator 2 view .LVU564
 1910 0020 BDE83840 		pop	{r3, r4, r5, lr}
 1911              		.cfi_restore 14
 1912              		.cfi_restore 5
 1913              		.cfi_restore 4
 1914              		.cfi_restore 3
 1915              		.cfi_def_cfa_offset 0
 1916              	.LVL139:
 993:Middlewares/Third_Party/FreeRTOS/Source/timers.c **** }
 1917              		.loc 1 993 2 discriminator 2 view .LVU565
 1918 0024 FFF7FEBF 		b	vPortExitCritical
 1919              	.LVL140:
 993:Middlewares/Third_Party/FreeRTOS/Source/timers.c **** }
 1920              		.loc 1 993 2 discriminator 2 view .LVU566
 1921              		.cfi_endproc
 1922              	.LFE24:
ARM GAS  /tmp/ccofPfel.s 			page 63


 1924              		.section	.text.xTimerPendFunctionCallFromISR,"ax",%progbits
 1925              		.align	1
 1926              		.global	xTimerPendFunctionCallFromISR
 1927              		.syntax unified
 1928              		.thumb
 1929              		.thumb_func
 1931              	xTimerPendFunctionCallFromISR:
 1932              	.LVL141:
 1933              	.LFB25:
 995:Middlewares/Third_Party/FreeRTOS/Source/timers.c **** /*-----------------------------------------------------------*/
 996:Middlewares/Third_Party/FreeRTOS/Source/timers.c **** 
 997:Middlewares/Third_Party/FreeRTOS/Source/timers.c **** #if( INCLUDE_xTimerPendFunctionCall == 1 )
 998:Middlewares/Third_Party/FreeRTOS/Source/timers.c **** 
 999:Middlewares/Third_Party/FreeRTOS/Source/timers.c **** 	BaseType_t xTimerPendFunctionCallFromISR( PendedFunction_t xFunctionToPend, void *pvParameter1, ui
1000:Middlewares/Third_Party/FreeRTOS/Source/timers.c **** 	{
 1934              		.loc 1 1000 2 is_stmt 1 view -0
 1935              		.cfi_startproc
 1936              		@ args = 0, pretend = 0, frame = 16
 1937              		@ frame_needed = 0, uses_anonymous_args = 0
1001:Middlewares/Third_Party/FreeRTOS/Source/timers.c **** 	DaemonTaskMessage_t xMessage;
 1938              		.loc 1 1001 2 view .LVU568
1002:Middlewares/Third_Party/FreeRTOS/Source/timers.c **** 	BaseType_t xReturn;
 1939              		.loc 1 1002 2 view .LVU569
1003:Middlewares/Third_Party/FreeRTOS/Source/timers.c **** 
1004:Middlewares/Third_Party/FreeRTOS/Source/timers.c **** 		/* Complete the message with the function parameters and post it to the
1005:Middlewares/Third_Party/FreeRTOS/Source/timers.c **** 		daemon task. */
1006:Middlewares/Third_Party/FreeRTOS/Source/timers.c **** 		xMessage.xMessageID = tmrCOMMAND_EXECUTE_CALLBACK_FROM_ISR;
 1940              		.loc 1 1006 3 view .LVU570
1000:Middlewares/Third_Party/FreeRTOS/Source/timers.c **** 	DaemonTaskMessage_t xMessage;
 1941              		.loc 1 1000 2 is_stmt 0 view .LVU571
 1942 0000 1FB5     		push	{r0, r1, r2, r3, r4, lr}
 1943              		.cfi_def_cfa_offset 24
 1944              		.cfi_offset 4, -8
 1945              		.cfi_offset 14, -4
1000:Middlewares/Third_Party/FreeRTOS/Source/timers.c **** 	DaemonTaskMessage_t xMessage;
 1946              		.loc 1 1000 2 view .LVU572
 1947 0002 1446     		mov	r4, r2
 1948 0004 1A46     		mov	r2, r3
 1949              	.LVL142:
 1950              		.loc 1 1006 23 view .LVU573
 1951 0006 6FF00103 		mvn	r3, #1
 1952              	.LVL143:
1007:Middlewares/Third_Party/FreeRTOS/Source/timers.c **** 		xMessage.u.xCallbackParameters.pxCallbackFunction = xFunctionToPend;
 1953              		.loc 1 1007 53 view .LVU574
 1954 000a CDE90030 		strd	r3, r0, [sp]
1008:Middlewares/Third_Party/FreeRTOS/Source/timers.c **** 		xMessage.u.xCallbackParameters.pvParameter1 = pvParameter1;
 1955              		.loc 1 1008 3 is_stmt 1 view .LVU575
1009:Middlewares/Third_Party/FreeRTOS/Source/timers.c **** 		xMessage.u.xCallbackParameters.ulParameter2 = ulParameter2;
1010:Middlewares/Third_Party/FreeRTOS/Source/timers.c **** 
1011:Middlewares/Third_Party/FreeRTOS/Source/timers.c **** 		xReturn = xQueueSendFromISR( xTimerQueue, &xMessage, pxHigherPriorityTaskWoken );
 1956              		.loc 1 1011 13 is_stmt 0 view .LVU576
 1957 000e 0548     		ldr	r0, .L127
 1958              	.LVL144:
1009:Middlewares/Third_Party/FreeRTOS/Source/timers.c **** 		xMessage.u.xCallbackParameters.ulParameter2 = ulParameter2;
 1959              		.loc 1 1009 47 view .LVU577
 1960 0010 CDE90214 		strd	r1, r4, [sp, #8]
 1961              		.loc 1 1011 3 is_stmt 1 view .LVU578
ARM GAS  /tmp/ccofPfel.s 			page 64


 1962              		.loc 1 1011 13 is_stmt 0 view .LVU579
 1963 0014 0023     		movs	r3, #0
 1964 0016 6946     		mov	r1, sp
 1965              	.LVL145:
 1966              		.loc 1 1011 13 view .LVU580
 1967 0018 0068     		ldr	r0, [r0]
 1968 001a FFF7FEFF 		bl	xQueueGenericSendFromISR
 1969              	.LVL146:
1012:Middlewares/Third_Party/FreeRTOS/Source/timers.c **** 
1013:Middlewares/Third_Party/FreeRTOS/Source/timers.c **** 		tracePEND_FUNC_CALL_FROM_ISR( xFunctionToPend, pvParameter1, ulParameter2, xReturn );
 1970              		.loc 1 1013 87 is_stmt 1 view .LVU581
1014:Middlewares/Third_Party/FreeRTOS/Source/timers.c **** 
1015:Middlewares/Third_Party/FreeRTOS/Source/timers.c **** 		return xReturn;
 1971              		.loc 1 1015 3 view .LVU582
1016:Middlewares/Third_Party/FreeRTOS/Source/timers.c **** 	}
 1972              		.loc 1 1016 2 is_stmt 0 view .LVU583
 1973 001e 04B0     		add	sp, sp, #16
 1974              		.cfi_def_cfa_offset 8
 1975              		@ sp needed
 1976 0020 10BD     		pop	{r4, pc}
 1977              	.LVL147:
 1978              	.L128:
 1979              		.loc 1 1016 2 view .LVU584
 1980 0022 00BF     		.align	2
 1981              	.L127:
 1982 0024 00000000 		.word	xTimerQueue
 1983              		.cfi_endproc
 1984              	.LFE25:
 1986              		.section	.text.xTimerPendFunctionCall,"ax",%progbits
 1987              		.align	1
 1988              		.global	xTimerPendFunctionCall
 1989              		.syntax unified
 1990              		.thumb
 1991              		.thumb_func
 1993              	xTimerPendFunctionCall:
 1994              	.LVL148:
 1995              	.LFB26:
1017:Middlewares/Third_Party/FreeRTOS/Source/timers.c **** 
1018:Middlewares/Third_Party/FreeRTOS/Source/timers.c **** #endif /* INCLUDE_xTimerPendFunctionCall */
1019:Middlewares/Third_Party/FreeRTOS/Source/timers.c **** /*-----------------------------------------------------------*/
1020:Middlewares/Third_Party/FreeRTOS/Source/timers.c **** 
1021:Middlewares/Third_Party/FreeRTOS/Source/timers.c **** #if( INCLUDE_xTimerPendFunctionCall == 1 )
1022:Middlewares/Third_Party/FreeRTOS/Source/timers.c **** 
1023:Middlewares/Third_Party/FreeRTOS/Source/timers.c **** 	BaseType_t xTimerPendFunctionCall( PendedFunction_t xFunctionToPend, void *pvParameter1, uint32_t 
1024:Middlewares/Third_Party/FreeRTOS/Source/timers.c **** 	{
 1996              		.loc 1 1024 2 is_stmt 1 view -0
 1997              		.cfi_startproc
 1998              		@ args = 0, pretend = 0, frame = 16
 1999              		@ frame_needed = 0, uses_anonymous_args = 0
1025:Middlewares/Third_Party/FreeRTOS/Source/timers.c **** 	DaemonTaskMessage_t xMessage;
 2000              		.loc 1 1025 2 view .LVU586
1026:Middlewares/Third_Party/FreeRTOS/Source/timers.c **** 	BaseType_t xReturn;
 2001              		.loc 1 1026 2 view .LVU587
1027:Middlewares/Third_Party/FreeRTOS/Source/timers.c **** 
1028:Middlewares/Third_Party/FreeRTOS/Source/timers.c **** 		/* This function can only be called after a timer has been created or
1029:Middlewares/Third_Party/FreeRTOS/Source/timers.c **** 		after the scheduler has been started because, until then, the timer
1030:Middlewares/Third_Party/FreeRTOS/Source/timers.c **** 		queue does not exist. */
ARM GAS  /tmp/ccofPfel.s 			page 65


1031:Middlewares/Third_Party/FreeRTOS/Source/timers.c **** 		configASSERT( xTimerQueue );
 2002              		.loc 1 1031 3 view .LVU588
1024:Middlewares/Third_Party/FreeRTOS/Source/timers.c **** 	DaemonTaskMessage_t xMessage;
 2003              		.loc 1 1024 2 is_stmt 0 view .LVU589
 2004 0000 30B5     		push	{r4, r5, lr}
 2005              		.cfi_def_cfa_offset 12
 2006              		.cfi_offset 4, -12
 2007              		.cfi_offset 5, -8
 2008              		.cfi_offset 14, -4
 2009 0002 1446     		mov	r4, r2
 2010 0004 1A46     		mov	r2, r3
 2011              	.LVL149:
 2012              		.loc 1 1031 3 view .LVU590
 2013 0006 0D4B     		ldr	r3, .L132
 2014              	.LVL150:
1024:Middlewares/Third_Party/FreeRTOS/Source/timers.c **** 	DaemonTaskMessage_t xMessage;
 2015              		.loc 1 1024 2 view .LVU591
 2016 0008 0546     		mov	r5, r0
 2017              		.loc 1 1031 3 view .LVU592
 2018 000a 1868     		ldr	r0, [r3]
 2019              	.LVL151:
1024:Middlewares/Third_Party/FreeRTOS/Source/timers.c **** 	DaemonTaskMessage_t xMessage;
 2020              		.loc 1 1024 2 view .LVU593
 2021 000c 85B0     		sub	sp, sp, #20
 2022              		.cfi_def_cfa_offset 32
 2023              		.loc 1 1031 3 view .LVU594
 2024 000e 40B9     		cbnz	r0, .L130
 2025              		.loc 1 1031 3 is_stmt 1 view .LVU595
 2026              	.LBB161:
 2027              	.LBI161:
 191:Middlewares/Third_Party/FreeRTOS/Source/portable/GCC/ARM_CM3/portmacro.h **** {
 2028              		.loc 2 191 30 view .LVU596
 2029              	.LBB162:
 193:Middlewares/Third_Party/FreeRTOS/Source/portable/GCC/ARM_CM3/portmacro.h **** 
 2030              		.loc 2 193 1 view .LVU597
 2031              		.loc 2 195 2 view .LVU598
 2032              		.syntax unified
 2033              	@ 195 "Middlewares/Third_Party/FreeRTOS/Source/portable/GCC/ARM_CM3/portmacro.h" 1
 2034 0010 4FF05003 			mov r3, #80												
 2035 0014 83F31188 		msr basepri, r3											
 2036 0018 BFF36F8F 		isb														
 2037 001c BFF34F8F 		dsb														
 2038              	
 2039              	@ 0 "" 2
 2040              	.LVL152:
 2041              		.thumb
 2042              		.syntax unified
 2043              	.L131:
 2044              		.loc 2 195 2 is_stmt 0 view .LVU599
 2045              	.LBE162:
 2046              	.LBE161:
 2047              		.loc 1 1031 3 is_stmt 1 discriminator 1 view .LVU600
 2048              		.loc 1 1031 3 discriminator 1 view .LVU601
 2049 0020 FEE7     		b	.L131
 2050              	.L130:
 2051              		.loc 1 1031 30 discriminator 2 view .LVU602
1032:Middlewares/Third_Party/FreeRTOS/Source/timers.c **** 
ARM GAS  /tmp/ccofPfel.s 			page 66


1033:Middlewares/Third_Party/FreeRTOS/Source/timers.c **** 		/* Complete the message with the function parameters and post it to the
1034:Middlewares/Third_Party/FreeRTOS/Source/timers.c **** 		daemon task. */
1035:Middlewares/Third_Party/FreeRTOS/Source/timers.c **** 		xMessage.xMessageID = tmrCOMMAND_EXECUTE_CALLBACK;
 2052              		.loc 1 1035 3 discriminator 2 view .LVU603
 2053              		.loc 1 1035 23 is_stmt 0 discriminator 2 view .LVU604
 2054 0022 4FF0FF33 		mov	r3, #-1
1036:Middlewares/Third_Party/FreeRTOS/Source/timers.c **** 		xMessage.u.xCallbackParameters.pxCallbackFunction = xFunctionToPend;
1037:Middlewares/Third_Party/FreeRTOS/Source/timers.c **** 		xMessage.u.xCallbackParameters.pvParameter1 = pvParameter1;
1038:Middlewares/Third_Party/FreeRTOS/Source/timers.c **** 		xMessage.u.xCallbackParameters.ulParameter2 = ulParameter2;
 2055              		.loc 1 1038 47 discriminator 2 view .LVU605
 2056 0026 CDE90214 		strd	r1, r4, [sp, #8]
1036:Middlewares/Third_Party/FreeRTOS/Source/timers.c **** 		xMessage.u.xCallbackParameters.pxCallbackFunction = xFunctionToPend;
 2057              		.loc 1 1036 53 discriminator 2 view .LVU606
 2058 002a CDE90035 		strd	r3, r5, [sp]
1037:Middlewares/Third_Party/FreeRTOS/Source/timers.c **** 		xMessage.u.xCallbackParameters.ulParameter2 = ulParameter2;
 2059              		.loc 1 1037 3 is_stmt 1 discriminator 2 view .LVU607
1039:Middlewares/Third_Party/FreeRTOS/Source/timers.c **** 
1040:Middlewares/Third_Party/FreeRTOS/Source/timers.c **** 		xReturn = xQueueSendToBack( xTimerQueue, &xMessage, xTicksToWait );
 2060              		.loc 1 1040 3 discriminator 2 view .LVU608
 2061              		.loc 1 1040 13 is_stmt 0 discriminator 2 view .LVU609
 2062 002e 6946     		mov	r1, sp
 2063              	.LVL153:
 2064              		.loc 1 1040 13 discriminator 2 view .LVU610
 2065 0030 0023     		movs	r3, #0
 2066 0032 FFF7FEFF 		bl	xQueueGenericSend
 2067              	.LVL154:
1041:Middlewares/Third_Party/FreeRTOS/Source/timers.c **** 
1042:Middlewares/Third_Party/FreeRTOS/Source/timers.c **** 		tracePEND_FUNC_CALL( xFunctionToPend, pvParameter1, ulParameter2, xReturn );
 2068              		.loc 1 1042 78 is_stmt 1 discriminator 2 view .LVU611
1043:Middlewares/Third_Party/FreeRTOS/Source/timers.c **** 
1044:Middlewares/Third_Party/FreeRTOS/Source/timers.c **** 		return xReturn;
 2069              		.loc 1 1044 3 discriminator 2 view .LVU612
1045:Middlewares/Third_Party/FreeRTOS/Source/timers.c **** 	}
 2070              		.loc 1 1045 2 is_stmt 0 discriminator 2 view .LVU613
 2071 0036 05B0     		add	sp, sp, #20
 2072              		.cfi_def_cfa_offset 12
 2073              		@ sp needed
 2074 0038 30BD     		pop	{r4, r5, pc}
 2075              	.LVL155:
 2076              	.L133:
 2077              		.loc 1 1045 2 discriminator 2 view .LVU614
 2078 003a 00BF     		.align	2
 2079              	.L132:
 2080 003c 00000000 		.word	xTimerQueue
 2081              		.cfi_endproc
 2082              	.LFE26:
 2084              		.section	.text.uxTimerGetTimerNumber,"ax",%progbits
 2085              		.align	1
 2086              		.global	uxTimerGetTimerNumber
 2087              		.syntax unified
 2088              		.thumb
 2089              		.thumb_func
 2091              	uxTimerGetTimerNumber:
 2092              	.LVL156:
 2093              	.LFB27:
1046:Middlewares/Third_Party/FreeRTOS/Source/timers.c **** 
1047:Middlewares/Third_Party/FreeRTOS/Source/timers.c **** #endif /* INCLUDE_xTimerPendFunctionCall */
ARM GAS  /tmp/ccofPfel.s 			page 67


1048:Middlewares/Third_Party/FreeRTOS/Source/timers.c **** /*-----------------------------------------------------------*/
1049:Middlewares/Third_Party/FreeRTOS/Source/timers.c **** 
1050:Middlewares/Third_Party/FreeRTOS/Source/timers.c **** #if ( configUSE_TRACE_FACILITY == 1 )
1051:Middlewares/Third_Party/FreeRTOS/Source/timers.c **** 
1052:Middlewares/Third_Party/FreeRTOS/Source/timers.c **** 	UBaseType_t uxTimerGetTimerNumber( TimerHandle_t xTimer )
1053:Middlewares/Third_Party/FreeRTOS/Source/timers.c **** 	{
 2094              		.loc 1 1053 2 is_stmt 1 view -0
 2095              		.cfi_startproc
 2096              		@ args = 0, pretend = 0, frame = 0
 2097              		@ frame_needed = 0, uses_anonymous_args = 0
 2098              		@ link register save eliminated.
1054:Middlewares/Third_Party/FreeRTOS/Source/timers.c **** 		return ( ( Timer_t * ) xTimer )->uxTimerNumber;
 2099              		.loc 1 1054 3 view .LVU616
1055:Middlewares/Third_Party/FreeRTOS/Source/timers.c **** 	}
 2100              		.loc 1 1055 2 is_stmt 0 view .LVU617
 2101 0000 806A     		ldr	r0, [r0, #40]
 2102              	.LVL157:
 2103              		.loc 1 1055 2 view .LVU618
 2104 0002 7047     		bx	lr
 2105              		.cfi_endproc
 2106              	.LFE27:
 2108              		.section	.text.vTimerSetTimerNumber,"ax",%progbits
 2109              		.align	1
 2110              		.global	vTimerSetTimerNumber
 2111              		.syntax unified
 2112              		.thumb
 2113              		.thumb_func
 2115              	vTimerSetTimerNumber:
 2116              	.LVL158:
 2117              	.LFB28:
1056:Middlewares/Third_Party/FreeRTOS/Source/timers.c **** 
1057:Middlewares/Third_Party/FreeRTOS/Source/timers.c **** #endif /* configUSE_TRACE_FACILITY */
1058:Middlewares/Third_Party/FreeRTOS/Source/timers.c **** /*-----------------------------------------------------------*/
1059:Middlewares/Third_Party/FreeRTOS/Source/timers.c **** 
1060:Middlewares/Third_Party/FreeRTOS/Source/timers.c **** #if ( configUSE_TRACE_FACILITY == 1 )
1061:Middlewares/Third_Party/FreeRTOS/Source/timers.c **** 
1062:Middlewares/Third_Party/FreeRTOS/Source/timers.c **** 	void vTimerSetTimerNumber( TimerHandle_t xTimer, UBaseType_t uxTimerNumber )
1063:Middlewares/Third_Party/FreeRTOS/Source/timers.c **** 	{
 2118              		.loc 1 1063 2 is_stmt 1 view -0
 2119              		.cfi_startproc
 2120              		@ args = 0, pretend = 0, frame = 0
 2121              		@ frame_needed = 0, uses_anonymous_args = 0
 2122              		@ link register save eliminated.
1064:Middlewares/Third_Party/FreeRTOS/Source/timers.c **** 		( ( Timer_t * ) xTimer )->uxTimerNumber = uxTimerNumber;
 2123              		.loc 1 1064 3 view .LVU620
 2124              		.loc 1 1064 43 is_stmt 0 view .LVU621
 2125 0000 8162     		str	r1, [r0, #40]
1065:Middlewares/Third_Party/FreeRTOS/Source/timers.c **** 	}
 2126              		.loc 1 1065 2 view .LVU622
 2127 0002 7047     		bx	lr
 2128              		.cfi_endproc
 2129              	.LFE28:
 2131              		.section	.bss.xStaticTimerQueue.0,"aw",%nobits
 2132              		.align	2
 2135              	xStaticTimerQueue.0:
 2136 0000 00000000 		.space	80
 2136      00000000 
ARM GAS  /tmp/ccofPfel.s 			page 68


 2136      00000000 
 2136      00000000 
 2136      00000000 
 2137              		.section	.bss.ucStaticTimerQueueStorage.1,"aw",%nobits
 2140              	ucStaticTimerQueueStorage.1:
 2141 0000 00000000 		.space	160
 2141      00000000 
 2141      00000000 
 2141      00000000 
 2141      00000000 
 2142              		.section	.bss.xLastTime.2,"aw",%nobits
 2143              		.align	2
 2146              	xLastTime.2:
 2147 0000 00000000 		.space	4
 2148              		.section	.bss.xTimerTaskHandle,"aw",%nobits
 2149              		.align	2
 2152              	xTimerTaskHandle:
 2153 0000 00000000 		.space	4
 2154              		.section	.bss.xTimerQueue,"aw",%nobits
 2155              		.align	2
 2158              	xTimerQueue:
 2159 0000 00000000 		.space	4
 2160              		.section	.bss.pxOverflowTimerList,"aw",%nobits
 2161              		.align	2
 2164              	pxOverflowTimerList:
 2165 0000 00000000 		.space	4
 2166              		.section	.bss.pxCurrentTimerList,"aw",%nobits
 2167              		.align	2
 2170              	pxCurrentTimerList:
 2171 0000 00000000 		.space	4
 2172              		.section	.bss.xActiveTimerList2,"aw",%nobits
 2173              		.align	2
 2176              	xActiveTimerList2:
 2177 0000 00000000 		.space	20
 2177      00000000 
 2177      00000000 
 2177      00000000 
 2177      00000000 
 2178              		.section	.bss.xActiveTimerList1,"aw",%nobits
 2179              		.align	2
 2182              	xActiveTimerList1:
 2183 0000 00000000 		.space	20
 2183      00000000 
 2183      00000000 
 2183      00000000 
 2183      00000000 
 2184              		.text
 2185              	.Letext0:
 2186              		.file 3 "/home/paul/.config/Code/User/globalStorage/bmd.stm32-for-vscode/@xpack-dev-tools/arm-none
 2187              		.file 4 "/home/paul/.config/Code/User/globalStorage/bmd.stm32-for-vscode/@xpack-dev-tools/arm-none
 2188              		.file 5 "/home/paul/.config/Code/User/globalStorage/bmd.stm32-for-vscode/@xpack-dev-tools/arm-none
 2189              		.file 6 "Middlewares/Third_Party/FreeRTOS/Source/include/projdefs.h"
 2190              		.file 7 "Middlewares/Third_Party/FreeRTOS/Source/include/FreeRTOS.h"
 2191              		.file 8 "Middlewares/Third_Party/FreeRTOS/Source/include/list.h"
 2192              		.file 9 "Middlewares/Third_Party/FreeRTOS/Source/include/task.h"
 2193              		.file 10 "Middlewares/Third_Party/FreeRTOS/Source/include/queue.h"
 2194              		.file 11 "Middlewares/Third_Party/FreeRTOS/Source/include/timers.h"
