ARM GAS  /tmp/ccCmnnEt.s 			page 1


   1              		.cpu cortex-m3
   2              		.arch armv7-m
   3              		.fpu softvfp
   4              		.eabi_attribute 20, 1
   5              		.eabi_attribute 21, 1
   6              		.eabi_attribute 23, 3
   7              		.eabi_attribute 24, 1
   8              		.eabi_attribute 25, 1
   9              		.eabi_attribute 26, 1
  10              		.eabi_attribute 30, 4
  11              		.eabi_attribute 34, 1
  12              		.eabi_attribute 18, 4
  13              		.file	"usb.c"
  14              		.text
  15              	.Ltext0:
  16              		.cfi_sections	.debug_frame
  17              		.file 1 "Core/Src/usb.c"
  18              		.section	.text.MX_USB_PCD_Init,"ax",%progbits
  19              		.align	1
  20              		.global	MX_USB_PCD_Init
  21              		.syntax unified
  22              		.thumb
  23              		.thumb_func
  25              	MX_USB_PCD_Init:
  26              	.LFB65:
   1:Core/Src/usb.c **** /* USER CODE BEGIN Header */
   2:Core/Src/usb.c **** /**
   3:Core/Src/usb.c ****   ******************************************************************************
   4:Core/Src/usb.c ****   * @file    usb.c
   5:Core/Src/usb.c ****   * @brief   This file provides code for the configuration
   6:Core/Src/usb.c ****   *          of the USB instances.
   7:Core/Src/usb.c ****   ******************************************************************************
   8:Core/Src/usb.c ****   * @attention
   9:Core/Src/usb.c ****   *
  10:Core/Src/usb.c ****   * Copyright (c) 2024 STMicroelectronics.
  11:Core/Src/usb.c ****   * All rights reserved.
  12:Core/Src/usb.c ****   *
  13:Core/Src/usb.c ****   * This software is licensed under terms that can be found in the LICENSE file
  14:Core/Src/usb.c ****   * in the root directory of this software component.
  15:Core/Src/usb.c ****   * If no LICENSE file comes with this software, it is provided AS-IS.
  16:Core/Src/usb.c ****   *
  17:Core/Src/usb.c ****   ******************************************************************************
  18:Core/Src/usb.c ****   */
  19:Core/Src/usb.c **** /* USER CODE END Header */
  20:Core/Src/usb.c **** /* Includes ------------------------------------------------------------------*/
  21:Core/Src/usb.c **** #include "usb.h"
  22:Core/Src/usb.c **** 
  23:Core/Src/usb.c **** /* USER CODE BEGIN 0 */
  24:Core/Src/usb.c **** 
  25:Core/Src/usb.c **** /* USER CODE END 0 */
  26:Core/Src/usb.c **** 
  27:Core/Src/usb.c **** PCD_HandleTypeDef hpcd_USB_FS;
  28:Core/Src/usb.c **** 
  29:Core/Src/usb.c **** /* USB init function */
  30:Core/Src/usb.c **** 
  31:Core/Src/usb.c **** void MX_USB_PCD_Init(void)
  32:Core/Src/usb.c **** {
ARM GAS  /tmp/ccCmnnEt.s 			page 2


  27              		.loc 1 32 1 view -0
  28              		.cfi_startproc
  29              		@ args = 0, pretend = 0, frame = 0
  30              		@ frame_needed = 0, uses_anonymous_args = 0
  33:Core/Src/usb.c **** 
  34:Core/Src/usb.c ****   /* USER CODE BEGIN USB_Init 0 */
  35:Core/Src/usb.c **** 
  36:Core/Src/usb.c ****   /* USER CODE END USB_Init 0 */
  37:Core/Src/usb.c **** 
  38:Core/Src/usb.c ****   /* USER CODE BEGIN USB_Init 1 */
  39:Core/Src/usb.c **** 
  40:Core/Src/usb.c ****   /* USER CODE END USB_Init 1 */
  41:Core/Src/usb.c ****   hpcd_USB_FS.Instance = USB;
  31              		.loc 1 41 3 view .LVU1
  32:Core/Src/usb.c **** 
  32              		.loc 1 32 1 is_stmt 0 view .LVU2
  33 0000 08B5     		push	{r3, lr}
  34              		.cfi_def_cfa_offset 8
  35              		.cfi_offset 3, -8
  36              		.cfi_offset 14, -4
  42:Core/Src/usb.c ****   hpcd_USB_FS.Init.dev_endpoints = 8;
  37              		.loc 1 42 34 view .LVU3
  38 0002 0823     		movs	r3, #8
  41:Core/Src/usb.c ****   hpcd_USB_FS.Init.dev_endpoints = 8;
  39              		.loc 1 41 24 view .LVU4
  40 0004 0848     		ldr	r0, .L3
  41              		.loc 1 42 34 view .LVU5
  42 0006 094A     		ldr	r2, .L3+4
  43 0008 C0E90023 		strd	r2, r3, [r0]
  43:Core/Src/usb.c ****   hpcd_USB_FS.Init.speed = PCD_SPEED_FULL;
  44              		.loc 1 43 3 is_stmt 1 view .LVU6
  45              		.loc 1 43 26 is_stmt 0 view .LVU7
  46 000c 0223     		movs	r3, #2
  47 000e 8360     		str	r3, [r0, #8]
  44:Core/Src/usb.c ****   hpcd_USB_FS.Init.low_power_enable = DISABLE;
  48              		.loc 1 44 3 is_stmt 1 view .LVU8
  49              		.loc 1 44 37 is_stmt 0 view .LVU9
  50 0010 0023     		movs	r3, #0
  45:Core/Src/usb.c ****   hpcd_USB_FS.Init.lpm_enable = DISABLE;
  51              		.loc 1 45 31 view .LVU10
  52 0012 C0E90633 		strd	r3, r3, [r0, #24]
  46:Core/Src/usb.c ****   hpcd_USB_FS.Init.battery_charging_enable = DISABLE;
  53              		.loc 1 46 3 is_stmt 1 view .LVU11
  54              		.loc 1 46 44 is_stmt 0 view .LVU12
  55 0016 0362     		str	r3, [r0, #32]
  47:Core/Src/usb.c ****   if (HAL_PCD_Init(&hpcd_USB_FS) != HAL_OK)
  56              		.loc 1 47 3 is_stmt 1 view .LVU13
  57              		.loc 1 47 7 is_stmt 0 view .LVU14
  58 0018 FFF7FEFF 		bl	HAL_PCD_Init
  59              	.LVL0:
  60              		.loc 1 47 6 view .LVU15
  61 001c 18B1     		cbz	r0, .L1
  48:Core/Src/usb.c ****   {
  49:Core/Src/usb.c ****     Error_Handler();
  62              		.loc 1 49 5 is_stmt 1 view .LVU16
  50:Core/Src/usb.c ****   }
  51:Core/Src/usb.c ****   /* USER CODE BEGIN USB_Init 2 */
ARM GAS  /tmp/ccCmnnEt.s 			page 3


  52:Core/Src/usb.c **** 
  53:Core/Src/usb.c ****   /* USER CODE END USB_Init 2 */
  54:Core/Src/usb.c **** 
  55:Core/Src/usb.c **** }
  63              		.loc 1 55 1 is_stmt 0 view .LVU17
  64 001e BDE80840 		pop	{r3, lr}
  65              		.cfi_remember_state
  66              		.cfi_restore 14
  67              		.cfi_restore 3
  68              		.cfi_def_cfa_offset 0
  49:Core/Src/usb.c ****   }
  69              		.loc 1 49 5 view .LVU18
  70 0022 FFF7FEBF 		b	Error_Handler
  71              	.LVL1:
  72              	.L1:
  73              		.cfi_restore_state
  74              		.loc 1 55 1 view .LVU19
  75 0026 08BD     		pop	{r3, pc}
  76              	.L4:
  77              		.align	2
  78              	.L3:
  79 0028 00000000 		.word	hpcd_USB_FS
  80 002c 005C0040 		.word	1073765376
  81              		.cfi_endproc
  82              	.LFE65:
  84              		.section	.text.HAL_PCD_MspInit,"ax",%progbits
  85              		.align	1
  86              		.global	HAL_PCD_MspInit
  87              		.syntax unified
  88              		.thumb
  89              		.thumb_func
  91              	HAL_PCD_MspInit:
  92              	.LVL2:
  93              	.LFB66:
  56:Core/Src/usb.c **** 
  57:Core/Src/usb.c **** void HAL_PCD_MspInit(PCD_HandleTypeDef* pcdHandle)
  58:Core/Src/usb.c **** {
  94              		.loc 1 58 1 is_stmt 1 view -0
  95              		.cfi_startproc
  96              		@ args = 0, pretend = 0, frame = 8
  97              		@ frame_needed = 0, uses_anonymous_args = 0
  98              		@ link register save eliminated.
  59:Core/Src/usb.c **** 
  60:Core/Src/usb.c ****   if(pcdHandle->Instance==USB)
  99              		.loc 1 60 3 view .LVU21
 100              		.loc 1 60 5 is_stmt 0 view .LVU22
 101 0000 0268     		ldr	r2, [r0]
 102 0002 084B     		ldr	r3, .L7
  58:Core/Src/usb.c **** 
 103              		.loc 1 58 1 view .LVU23
 104 0004 82B0     		sub	sp, sp, #8
 105              		.cfi_def_cfa_offset 8
 106              		.loc 1 60 5 view .LVU24
 107 0006 9A42     		cmp	r2, r3
 108 0008 0AD1     		bne	.L5
  61:Core/Src/usb.c ****   {
  62:Core/Src/usb.c ****   /* USER CODE BEGIN USB_MspInit 0 */
ARM GAS  /tmp/ccCmnnEt.s 			page 4


  63:Core/Src/usb.c **** 
  64:Core/Src/usb.c ****   /* USER CODE END USB_MspInit 0 */
  65:Core/Src/usb.c ****     /* USB clock enable */
  66:Core/Src/usb.c ****     __HAL_RCC_USB_CLK_ENABLE();
 109              		.loc 1 66 5 is_stmt 1 view .LVU25
 110              	.LBB2:
 111              		.loc 1 66 5 view .LVU26
 112              		.loc 1 66 5 view .LVU27
 113 000a 03F5DA33 		add	r3, r3, #111616
 114 000e DA69     		ldr	r2, [r3, #28]
 115 0010 42F40002 		orr	r2, r2, #8388608
 116 0014 DA61     		str	r2, [r3, #28]
 117              		.loc 1 66 5 view .LVU28
 118 0016 DB69     		ldr	r3, [r3, #28]
 119 0018 03F40003 		and	r3, r3, #8388608
 120 001c 0193     		str	r3, [sp, #4]
 121              		.loc 1 66 5 view .LVU29
 122 001e 019B     		ldr	r3, [sp, #4]
 123              	.LBE2:
 124              		.loc 1 66 5 view .LVU30
 125              	.L5:
  67:Core/Src/usb.c ****   /* USER CODE BEGIN USB_MspInit 1 */
  68:Core/Src/usb.c **** 
  69:Core/Src/usb.c ****   /* USER CODE END USB_MspInit 1 */
  70:Core/Src/usb.c ****   }
  71:Core/Src/usb.c **** }
 126              		.loc 1 71 1 is_stmt 0 view .LVU31
 127 0020 02B0     		add	sp, sp, #8
 128              		.cfi_def_cfa_offset 0
 129              		@ sp needed
 130 0022 7047     		bx	lr
 131              	.L8:
 132              		.align	2
 133              	.L7:
 134 0024 005C0040 		.word	1073765376
 135              		.cfi_endproc
 136              	.LFE66:
 138              		.section	.text.HAL_PCD_MspDeInit,"ax",%progbits
 139              		.align	1
 140              		.global	HAL_PCD_MspDeInit
 141              		.syntax unified
 142              		.thumb
 143              		.thumb_func
 145              	HAL_PCD_MspDeInit:
 146              	.LVL3:
 147              	.LFB67:
  72:Core/Src/usb.c **** 
  73:Core/Src/usb.c **** void HAL_PCD_MspDeInit(PCD_HandleTypeDef* pcdHandle)
  74:Core/Src/usb.c **** {
 148              		.loc 1 74 1 is_stmt 1 view -0
 149              		.cfi_startproc
 150              		@ args = 0, pretend = 0, frame = 0
 151              		@ frame_needed = 0, uses_anonymous_args = 0
 152              		@ link register save eliminated.
  75:Core/Src/usb.c **** 
  76:Core/Src/usb.c ****   if(pcdHandle->Instance==USB)
 153              		.loc 1 76 3 view .LVU33
ARM GAS  /tmp/ccCmnnEt.s 			page 5


 154              		.loc 1 76 5 is_stmt 0 view .LVU34
 155 0000 0268     		ldr	r2, [r0]
 156 0002 044B     		ldr	r3, .L11
 157 0004 9A42     		cmp	r2, r3
  77:Core/Src/usb.c ****   {
  78:Core/Src/usb.c ****   /* USER CODE BEGIN USB_MspDeInit 0 */
  79:Core/Src/usb.c **** 
  80:Core/Src/usb.c ****   /* USER CODE END USB_MspDeInit 0 */
  81:Core/Src/usb.c ****     /* Peripheral clock disable */
  82:Core/Src/usb.c ****     __HAL_RCC_USB_CLK_DISABLE();
 158              		.loc 1 82 5 is_stmt 1 view .LVU35
 159 0006 01BF     		itttt	eq
 160 0008 034A     		ldreq	r2, .L11+4
 161 000a D369     		ldreq	r3, [r2, #28]
 162 000c 23F40003 		biceq	r3, r3, #8388608
 163 0010 D361     		streq	r3, [r2, #28]
  83:Core/Src/usb.c ****   /* USER CODE BEGIN USB_MspDeInit 1 */
  84:Core/Src/usb.c **** 
  85:Core/Src/usb.c ****   /* USER CODE END USB_MspDeInit 1 */
  86:Core/Src/usb.c ****   }
  87:Core/Src/usb.c **** }
 164              		.loc 1 87 1 is_stmt 0 view .LVU36
 165 0012 7047     		bx	lr
 166              	.L12:
 167              		.align	2
 168              	.L11:
 169 0014 005C0040 		.word	1073765376
 170 0018 00100240 		.word	1073876992
 171              		.cfi_endproc
 172              	.LFE67:
 174              		.global	hpcd_USB_FS
 175              		.section	.bss.hpcd_USB_FS,"aw",%nobits
 176              		.align	2
 179              	hpcd_USB_FS:
 180 0000 00000000 		.space	752
 180      00000000 
 180      00000000 
 180      00000000 
 180      00000000 
 181              		.text
 182              	.Letext0:
 183              		.file 2 "/home/paul/.config/Code/User/globalStorage/bmd.stm32-for-vscode/@xpack-dev-tools/arm-none
 184              		.file 3 "/home/paul/.config/Code/User/globalStorage/bmd.stm32-for-vscode/@xpack-dev-tools/arm-none
 185              		.file 4 "Drivers/CMSIS/Device/ST/STM32F1xx/Include/stm32f103xb.h"
 186              		.file 5 "Drivers/CMSIS/Device/ST/STM32F1xx/Include/stm32f1xx.h"
 187              		.file 6 "Drivers/STM32F1xx_HAL_Driver/Inc/stm32f1xx_hal_def.h"
 188              		.file 7 "Drivers/STM32F1xx_HAL_Driver/Inc/stm32f1xx_ll_usb.h"
 189              		.file 8 "Drivers/STM32F1xx_HAL_Driver/Inc/stm32f1xx_hal_pcd.h"
 190              		.file 9 "Core/Inc/usb.h"
 191              		.file 10 "Core/Inc/main.h"
ARM GAS  /tmp/ccCmnnEt.s 			page 6

